
rv64ui-p-sw:     file format elf64-littleriscv


Disassembly of section .text.init:

0000000080000000 <_start>:
    80000000:	0500006f          	j	80000050 <reset_vector>

0000000080000004 <trap_vector>:
    80000004:	34202f73          	csrr	t5,mcause
    80000008:	00800f93          	li	t6,8
    8000000c:	03ff0863          	beq	t5,t6,8000003c <write_tohost>
    80000010:	00900f93          	li	t6,9
    80000014:	03ff0463          	beq	t5,t6,8000003c <write_tohost>
    80000018:	00b00f93          	li	t6,11
    8000001c:	03ff0063          	beq	t5,t6,8000003c <write_tohost>
    80000020:	00000f13          	li	t5,0
    80000024:	000f0463          	beqz	t5,8000002c <trap_vector+0x28>
    80000028:	000f0067          	jr	t5
    8000002c:	34202f73          	csrr	t5,mcause
    80000030:	000f5463          	bgez	t5,80000038 <handle_exception>
    80000034:	0040006f          	j	80000038 <handle_exception>

0000000080000038 <handle_exception>:
    80000038:	5391e193          	ori	gp,gp,1337

000000008000003c <write_tohost>:
    8000003c:	00001f17          	auipc	t5,0x1
    80000040:	fc3f2223          	sw	gp,-60(t5) # 80001000 <tohost>
    80000044:	00001f17          	auipc	t5,0x1
    80000048:	fc0f2023          	sw	zero,-64(t5) # 80001004 <tohost+0x4>
    8000004c:	ff1ff06f          	j	8000003c <write_tohost>

0000000080000050 <reset_vector>:
    80000050:	00000093          	li	ra,0
    80000054:	00000113          	li	sp,0
    80000058:	00000193          	li	gp,0
    8000005c:	00000213          	li	tp,0
    80000060:	00000293          	li	t0,0
    80000064:	00000313          	li	t1,0
    80000068:	00000393          	li	t2,0
    8000006c:	00000413          	li	s0,0
    80000070:	00000493          	li	s1,0
    80000074:	00000513          	li	a0,0
    80000078:	00000593          	li	a1,0
    8000007c:	00000613          	li	a2,0
    80000080:	00000693          	li	a3,0
    80000084:	00000713          	li	a4,0
    80000088:	00000793          	li	a5,0
    8000008c:	00000813          	li	a6,0
    80000090:	00000893          	li	a7,0
    80000094:	00000913          	li	s2,0
    80000098:	00000993          	li	s3,0
    8000009c:	00000a13          	li	s4,0
    800000a0:	00000a93          	li	s5,0
    800000a4:	00000b13          	li	s6,0
    800000a8:	00000b93          	li	s7,0
    800000ac:	00000c13          	li	s8,0
    800000b0:	00000c93          	li	s9,0
    800000b4:	00000d13          	li	s10,0
    800000b8:	00000d93          	li	s11,0
    800000bc:	00000e13          	li	t3,0
    800000c0:	00000e93          	li	t4,0
    800000c4:	00000f13          	li	t5,0
    800000c8:	00000f93          	li	t6,0
    800000cc:	f1402573          	csrr	a0,mhartid
    800000d0:	00051063          	bnez	a0,800000d0 <reset_vector+0x80>
    800000d4:	00000297          	auipc	t0,0x0
    800000d8:	01028293          	addi	t0,t0,16 # 800000e4 <reset_vector+0x94>
    800000dc:	30529073          	csrw	mtvec,t0
    800000e0:	74445073          	csrwi	0x744,8
    800000e4:	00000297          	auipc	t0,0x0
    800000e8:	01028293          	addi	t0,t0,16 # 800000f4 <reset_vector+0xa4>
    800000ec:	30529073          	csrw	mtvec,t0
    800000f0:	18005073          	csrwi	satp,0
    800000f4:	00000297          	auipc	t0,0x0
    800000f8:	02428293          	addi	t0,t0,36 # 80000118 <reset_vector+0xc8>
    800000fc:	30529073          	csrw	mtvec,t0
    80000100:	0010029b          	addiw	t0,zero,1
    80000104:	03529293          	slli	t0,t0,0x35
    80000108:	fff28293          	addi	t0,t0,-1
    8000010c:	3b029073          	csrw	pmpaddr0,t0
    80000110:	01f00293          	li	t0,31
    80000114:	3a029073          	csrw	pmpcfg0,t0
    80000118:	30405073          	csrwi	mie,0
    8000011c:	00000297          	auipc	t0,0x0
    80000120:	01428293          	addi	t0,t0,20 # 80000130 <reset_vector+0xe0>
    80000124:	30529073          	csrw	mtvec,t0
    80000128:	30205073          	csrwi	medeleg,0
    8000012c:	30305073          	csrwi	mideleg,0
    80000130:	00000193          	li	gp,0
    80000134:	00000297          	auipc	t0,0x0
    80000138:	ed028293          	addi	t0,t0,-304 # 80000004 <trap_vector>
    8000013c:	30529073          	csrw	mtvec,t0
    80000140:	00100513          	li	a0,1
    80000144:	01f51513          	slli	a0,a0,0x1f
    80000148:	00055c63          	bgez	a0,80000160 <reset_vector+0x110>
    8000014c:	0ff0000f          	fence
    80000150:	00100193          	li	gp,1
    80000154:	05d00893          	li	a7,93
    80000158:	00000513          	li	a0,0
    8000015c:	00000073          	ecall
    80000160:	00000293          	li	t0,0
    80000164:	00028a63          	beqz	t0,80000178 <reset_vector+0x128>
    80000168:	10529073          	csrw	stvec,t0
    8000016c:	0000b2b7          	lui	t0,0xb
    80000170:	1092829b          	addiw	t0,t0,265 # b109 <_start-0x7fff4ef7>
    80000174:	30229073          	csrw	medeleg,t0
    80000178:	30005073          	csrwi	mstatus,0
    8000017c:	00000297          	auipc	t0,0x0
    80000180:	01428293          	addi	t0,t0,20 # 80000190 <test_2>
    80000184:	34129073          	csrw	mepc,t0
    80000188:	f1402573          	csrr	a0,mhartid
    8000018c:	30200073          	mret

0000000080000190 <test_2>:
    80000190:	00200193          	li	gp,2
    80000194:	00002117          	auipc	sp,0x2
    80000198:	e6c10113          	addi	sp,sp,-404 # 80002000 <begin_signature>
    8000019c:	00aa00b7          	lui	ra,0xaa0
    800001a0:	0aa0809b          	addiw	ra,ra,170 # aa00aa <_start-0x7f55ff56>
    800001a4:	00000797          	auipc	a5,0x0
    800001a8:	01478793          	addi	a5,a5,20 # 800001b8 <test_2+0x28>
    800001ac:	00112023          	sw	ra,0(sp)
    800001b0:	00012703          	lw	a4,0(sp)
    800001b4:	0080006f          	j	800001bc <test_2+0x2c>
    800001b8:	00008713          	mv	a4,ra
    800001bc:	00aa03b7          	lui	t2,0xaa0
    800001c0:	0aa3839b          	addiw	t2,t2,170 # aa00aa <_start-0x7f55ff56>
    800001c4:	4c771863          	bne	a4,t2,80000694 <fail>

00000000800001c8 <test_3>:
    800001c8:	00300193          	li	gp,3
    800001cc:	00002117          	auipc	sp,0x2
    800001d0:	e3410113          	addi	sp,sp,-460 # 80002000 <begin_signature>
    800001d4:	aa00b0b7          	lui	ra,0xaa00b
    800001d8:	a000809b          	addiw	ra,ra,-1536 # ffffffffaa00aa00 <_end+0xffffffff2a0089d0>
    800001dc:	00000797          	auipc	a5,0x0
    800001e0:	01478793          	addi	a5,a5,20 # 800001f0 <test_3+0x28>
    800001e4:	00112223          	sw	ra,4(sp)
    800001e8:	00412703          	lw	a4,4(sp)
    800001ec:	0080006f          	j	800001f4 <test_3+0x2c>
    800001f0:	00008713          	mv	a4,ra
    800001f4:	aa00b3b7          	lui	t2,0xaa00b
    800001f8:	a003839b          	addiw	t2,t2,-1536 # ffffffffaa00aa00 <_end+0xffffffff2a0089d0>
    800001fc:	48771c63          	bne	a4,t2,80000694 <fail>

0000000080000200 <test_4>:
    80000200:	00400193          	li	gp,4
    80000204:	00002117          	auipc	sp,0x2
    80000208:	dfc10113          	addi	sp,sp,-516 # 80002000 <begin_signature>
    8000020c:	0aa010b7          	lui	ra,0xaa01
    80000210:	aa00809b          	addiw	ra,ra,-1376 # aa00aa0 <_start-0x755ff560>
    80000214:	00000797          	auipc	a5,0x0
    80000218:	01478793          	addi	a5,a5,20 # 80000228 <test_4+0x28>
    8000021c:	00112423          	sw	ra,8(sp)
    80000220:	00812703          	lw	a4,8(sp)
    80000224:	0080006f          	j	8000022c <test_4+0x2c>
    80000228:	00008713          	mv	a4,ra
    8000022c:	0aa013b7          	lui	t2,0xaa01
    80000230:	aa03839b          	addiw	t2,t2,-1376 # aa00aa0 <_start-0x755ff560>
    80000234:	46771063          	bne	a4,t2,80000694 <fail>

0000000080000238 <test_5>:
    80000238:	00500193          	li	gp,5
    8000023c:	00002117          	auipc	sp,0x2
    80000240:	dc410113          	addi	sp,sp,-572 # 80002000 <begin_signature>
    80000244:	a00aa0b7          	lui	ra,0xa00aa
    80000248:	00a0809b          	addiw	ra,ra,10 # ffffffffa00aa00a <_end+0xffffffff200a7fda>
    8000024c:	00000797          	auipc	a5,0x0
    80000250:	01478793          	addi	a5,a5,20 # 80000260 <test_5+0x28>
    80000254:	00112623          	sw	ra,12(sp)
    80000258:	00c12703          	lw	a4,12(sp)
    8000025c:	0080006f          	j	80000264 <test_5+0x2c>
    80000260:	00008713          	mv	a4,ra
    80000264:	a00aa3b7          	lui	t2,0xa00aa
    80000268:	00a3839b          	addiw	t2,t2,10 # ffffffffa00aa00a <_end+0xffffffff200a7fda>
    8000026c:	42771463          	bne	a4,t2,80000694 <fail>

0000000080000270 <test_6>:
    80000270:	00600193          	li	gp,6
    80000274:	00002117          	auipc	sp,0x2
    80000278:	da810113          	addi	sp,sp,-600 # 8000201c <tdat8>
    8000027c:	00aa00b7          	lui	ra,0xaa0
    80000280:	0aa0809b          	addiw	ra,ra,170 # aa00aa <_start-0x7f55ff56>
    80000284:	00000797          	auipc	a5,0x0
    80000288:	01478793          	addi	a5,a5,20 # 80000298 <test_6+0x28>
    8000028c:	fe112a23          	sw	ra,-12(sp)
    80000290:	ff412703          	lw	a4,-12(sp)
    80000294:	0080006f          	j	8000029c <test_6+0x2c>
    80000298:	00008713          	mv	a4,ra
    8000029c:	00aa03b7          	lui	t2,0xaa0
    800002a0:	0aa3839b          	addiw	t2,t2,170 # aa00aa <_start-0x7f55ff56>
    800002a4:	3e771863          	bne	a4,t2,80000694 <fail>

00000000800002a8 <test_7>:
    800002a8:	00700193          	li	gp,7
    800002ac:	00002117          	auipc	sp,0x2
    800002b0:	d7010113          	addi	sp,sp,-656 # 8000201c <tdat8>
    800002b4:	aa00b0b7          	lui	ra,0xaa00b
    800002b8:	a000809b          	addiw	ra,ra,-1536 # ffffffffaa00aa00 <_end+0xffffffff2a0089d0>
    800002bc:	00000797          	auipc	a5,0x0
    800002c0:	01478793          	addi	a5,a5,20 # 800002d0 <test_7+0x28>
    800002c4:	fe112c23          	sw	ra,-8(sp)
    800002c8:	ff812703          	lw	a4,-8(sp)
    800002cc:	0080006f          	j	800002d4 <test_7+0x2c>
    800002d0:	00008713          	mv	a4,ra
    800002d4:	aa00b3b7          	lui	t2,0xaa00b
    800002d8:	a003839b          	addiw	t2,t2,-1536 # ffffffffaa00aa00 <_end+0xffffffff2a0089d0>
    800002dc:	3a771c63          	bne	a4,t2,80000694 <fail>

00000000800002e0 <test_8>:
    800002e0:	00800193          	li	gp,8
    800002e4:	00002117          	auipc	sp,0x2
    800002e8:	d3810113          	addi	sp,sp,-712 # 8000201c <tdat8>
    800002ec:	0aa010b7          	lui	ra,0xaa01
    800002f0:	aa00809b          	addiw	ra,ra,-1376 # aa00aa0 <_start-0x755ff560>
    800002f4:	00000797          	auipc	a5,0x0
    800002f8:	01478793          	addi	a5,a5,20 # 80000308 <test_8+0x28>
    800002fc:	fe112e23          	sw	ra,-4(sp)
    80000300:	ffc12703          	lw	a4,-4(sp)
    80000304:	0080006f          	j	8000030c <test_8+0x2c>
    80000308:	00008713          	mv	a4,ra
    8000030c:	0aa013b7          	lui	t2,0xaa01
    80000310:	aa03839b          	addiw	t2,t2,-1376 # aa00aa0 <_start-0x755ff560>
    80000314:	38771063          	bne	a4,t2,80000694 <fail>

0000000080000318 <test_9>:
    80000318:	00900193          	li	gp,9
    8000031c:	00002117          	auipc	sp,0x2
    80000320:	d0010113          	addi	sp,sp,-768 # 8000201c <tdat8>
    80000324:	a00aa0b7          	lui	ra,0xa00aa
    80000328:	00a0809b          	addiw	ra,ra,10 # ffffffffa00aa00a <_end+0xffffffff200a7fda>
    8000032c:	00000797          	auipc	a5,0x0
    80000330:	01478793          	addi	a5,a5,20 # 80000340 <test_9+0x28>
    80000334:	00112023          	sw	ra,0(sp)
    80000338:	00012703          	lw	a4,0(sp)
    8000033c:	0080006f          	j	80000344 <test_9+0x2c>
    80000340:	00008713          	mv	a4,ra
    80000344:	a00aa3b7          	lui	t2,0xa00aa
    80000348:	00a3839b          	addiw	t2,t2,10 # ffffffffa00aa00a <_end+0xffffffff200a7fda>
    8000034c:	34771463          	bne	a4,t2,80000694 <fail>

0000000080000350 <test_10>:
    80000350:	00a00193          	li	gp,10
    80000354:	00002097          	auipc	ra,0x2
    80000358:	ccc08093          	addi	ra,ra,-820 # 80002020 <tdat9>
    8000035c:	12345137          	lui	sp,0x12345
    80000360:	6781011b          	addiw	sp,sp,1656 # 12345678 <_start-0x6dcba988>
    80000364:	fe008213          	addi	tp,ra,-32
    80000368:	02222023          	sw	sp,32(tp) # 20 <_start-0x7fffffe0>
    8000036c:	0000a283          	lw	t0,0(ra)
    80000370:	123453b7          	lui	t2,0x12345
    80000374:	6783839b          	addiw	t2,t2,1656 # 12345678 <_start-0x6dcba988>
    80000378:	30729e63          	bne	t0,t2,80000694 <fail>

000000008000037c <test_11>:
    8000037c:	00b00193          	li	gp,11
    80000380:	00002097          	auipc	ra,0x2
    80000384:	ca008093          	addi	ra,ra,-864 # 80002020 <tdat9>
    80000388:	58213137          	lui	sp,0x58213
    8000038c:	0981011b          	addiw	sp,sp,152 # 58213098 <_start-0x27decf68>
    80000390:	ffd08093          	addi	ra,ra,-3
    80000394:	0020a3a3          	sw	sp,7(ra)
    80000398:	00002217          	auipc	tp,0x2
    8000039c:	c8c20213          	addi	tp,tp,-884 # 80002024 <tdat10>
    800003a0:	00022283          	lw	t0,0(tp) # 0 <_start-0x80000000>
    800003a4:	582133b7          	lui	t2,0x58213
    800003a8:	0983839b          	addiw	t2,t2,152 # 58213098 <_start-0x27decf68>
    800003ac:	2e729463          	bne	t0,t2,80000694 <fail>

00000000800003b0 <test_12>:
    800003b0:	00c00193          	li	gp,12
    800003b4:	00000213          	li	tp,0
    800003b8:	aabbd6b7          	lui	a3,0xaabbd
    800003bc:	cdd6869b          	addiw	a3,a3,-803 # ffffffffaabbccdd <_end+0xffffffff2abbacad>
    800003c0:	00002617          	auipc	a2,0x2
    800003c4:	c4060613          	addi	a2,a2,-960 # 80002000 <begin_signature>
    800003c8:	00d62023          	sw	a3,0(a2)
    800003cc:	00062703          	lw	a4,0(a2)
    800003d0:	aabbd3b7          	lui	t2,0xaabbd
    800003d4:	cdd3839b          	addiw	t2,t2,-803 # ffffffffaabbccdd <_end+0xffffffff2abbacad>
    800003d8:	2a771e63          	bne	a4,t2,80000694 <fail>
    800003dc:	00120213          	addi	tp,tp,1 # 1 <_start-0x7fffffff>
    800003e0:	00200293          	li	t0,2
    800003e4:	fc521ae3          	bne	tp,t0,800003b8 <test_12+0x8>

00000000800003e8 <test_13>:
    800003e8:	00d00193          	li	gp,13
    800003ec:	00000213          	li	tp,0
    800003f0:	daabc6b7          	lui	a3,0xdaabc
    800003f4:	ccd6869b          	addiw	a3,a3,-819 # ffffffffdaabbccd <_end+0xffffffff5aab9c9d>
    800003f8:	00002617          	auipc	a2,0x2
    800003fc:	c0860613          	addi	a2,a2,-1016 # 80002000 <begin_signature>
    80000400:	00000013          	nop
    80000404:	00d62223          	sw	a3,4(a2)
    80000408:	00462703          	lw	a4,4(a2)
    8000040c:	daabc3b7          	lui	t2,0xdaabc
    80000410:	ccd3839b          	addiw	t2,t2,-819 # ffffffffdaabbccd <_end+0xffffffff5aab9c9d>
    80000414:	28771063          	bne	a4,t2,80000694 <fail>
    80000418:	00120213          	addi	tp,tp,1 # 1 <_start-0x7fffffff>
    8000041c:	00200293          	li	t0,2
    80000420:	fc5218e3          	bne	tp,t0,800003f0 <test_13+0x8>

0000000080000424 <test_14>:
    80000424:	00e00193          	li	gp,14
    80000428:	00000213          	li	tp,0
    8000042c:	ddaac6b7          	lui	a3,0xddaac
    80000430:	bcc6869b          	addiw	a3,a3,-1076 # ffffffffddaabbcc <_end+0xffffffff5daa9b9c>
    80000434:	00002617          	auipc	a2,0x2
    80000438:	bcc60613          	addi	a2,a2,-1076 # 80002000 <begin_signature>
    8000043c:	00000013          	nop
    80000440:	00000013          	nop
    80000444:	00d62423          	sw	a3,8(a2)
    80000448:	00862703          	lw	a4,8(a2)
    8000044c:	ddaac3b7          	lui	t2,0xddaac
    80000450:	bcc3839b          	addiw	t2,t2,-1076 # ffffffffddaabbcc <_end+0xffffffff5daa9b9c>
    80000454:	24771063          	bne	a4,t2,80000694 <fail>
    80000458:	00120213          	addi	tp,tp,1 # 1 <_start-0x7fffffff>
    8000045c:	00200293          	li	t0,2
    80000460:	fc5216e3          	bne	tp,t0,8000042c <test_14+0x8>

0000000080000464 <test_15>:
    80000464:	00f00193          	li	gp,15
    80000468:	00000213          	li	tp,0
    8000046c:	cddab6b7          	lui	a3,0xcddab
    80000470:	bbc6869b          	addiw	a3,a3,-1092 # ffffffffcddaabbc <_end+0xffffffff4dda8b8c>
    80000474:	00000013          	nop
    80000478:	00002617          	auipc	a2,0x2
    8000047c:	b8860613          	addi	a2,a2,-1144 # 80002000 <begin_signature>
    80000480:	00d62623          	sw	a3,12(a2)
    80000484:	00c62703          	lw	a4,12(a2)
    80000488:	cddab3b7          	lui	t2,0xcddab
    8000048c:	bbc3839b          	addiw	t2,t2,-1092 # ffffffffcddaabbc <_end+0xffffffff4dda8b8c>
    80000490:	20771263          	bne	a4,t2,80000694 <fail>
    80000494:	00120213          	addi	tp,tp,1 # 1 <_start-0x7fffffff>
    80000498:	00200293          	li	t0,2
    8000049c:	fc5218e3          	bne	tp,t0,8000046c <test_15+0x8>

00000000800004a0 <test_16>:
    800004a0:	01000193          	li	gp,16
    800004a4:	00000213          	li	tp,0
    800004a8:	ccddb6b7          	lui	a3,0xccddb
    800004ac:	abb6869b          	addiw	a3,a3,-1349 # ffffffffccddaabb <_end+0xffffffff4cdd8a8b>
    800004b0:	00000013          	nop
    800004b4:	00002617          	auipc	a2,0x2
    800004b8:	b4c60613          	addi	a2,a2,-1204 # 80002000 <begin_signature>
    800004bc:	00000013          	nop
    800004c0:	00d62823          	sw	a3,16(a2)
    800004c4:	01062703          	lw	a4,16(a2)
    800004c8:	ccddb3b7          	lui	t2,0xccddb
    800004cc:	abb3839b          	addiw	t2,t2,-1349 # ffffffffccddaabb <_end+0xffffffff4cdd8a8b>
    800004d0:	1c771263          	bne	a4,t2,80000694 <fail>
    800004d4:	00120213          	addi	tp,tp,1 # 1 <_start-0x7fffffff>
    800004d8:	00200293          	li	t0,2
    800004dc:	fc5216e3          	bne	tp,t0,800004a8 <test_16+0x8>

00000000800004e0 <test_17>:
    800004e0:	01100193          	li	gp,17
    800004e4:	00000213          	li	tp,0
    800004e8:	bccde6b7          	lui	a3,0xbccde
    800004ec:	aab6869b          	addiw	a3,a3,-1365 # ffffffffbccddaab <_end+0xffffffff3ccdba7b>
    800004f0:	00000013          	nop
    800004f4:	00000013          	nop
    800004f8:	00002617          	auipc	a2,0x2
    800004fc:	b0860613          	addi	a2,a2,-1272 # 80002000 <begin_signature>
    80000500:	00d62a23          	sw	a3,20(a2)
    80000504:	01462703          	lw	a4,20(a2)
    80000508:	bccde3b7          	lui	t2,0xbccde
    8000050c:	aab3839b          	addiw	t2,t2,-1365 # ffffffffbccddaab <_end+0xffffffff3ccdba7b>
    80000510:	18771263          	bne	a4,t2,80000694 <fail>
    80000514:	00120213          	addi	tp,tp,1 # 1 <_start-0x7fffffff>
    80000518:	00200293          	li	t0,2
    8000051c:	fc5216e3          	bne	tp,t0,800004e8 <test_17+0x8>

0000000080000520 <test_18>:
    80000520:	01200193          	li	gp,18
    80000524:	00000213          	li	tp,0
    80000528:	00002117          	auipc	sp,0x2
    8000052c:	ad810113          	addi	sp,sp,-1320 # 80002000 <begin_signature>
    80000530:	001120b7          	lui	ra,0x112
    80000534:	2330809b          	addiw	ra,ra,563 # 112233 <_start-0x7feeddcd>
    80000538:	00112023          	sw	ra,0(sp)
    8000053c:	00012703          	lw	a4,0(sp)
    80000540:	001123b7          	lui	t2,0x112
    80000544:	2333839b          	addiw	t2,t2,563 # 112233 <_start-0x7feeddcd>
    80000548:	14771663          	bne	a4,t2,80000694 <fail>
    8000054c:	00120213          	addi	tp,tp,1 # 1 <_start-0x7fffffff>
    80000550:	00200293          	li	t0,2
    80000554:	fc521ae3          	bne	tp,t0,80000528 <test_18+0x8>

0000000080000558 <test_19>:
    80000558:	01300193          	li	gp,19
    8000055c:	00000213          	li	tp,0
    80000560:	00002117          	auipc	sp,0x2
    80000564:	aa010113          	addi	sp,sp,-1376 # 80002000 <begin_signature>
    80000568:	300110b7          	lui	ra,0x30011
    8000056c:	2230809b          	addiw	ra,ra,547 # 30011223 <_start-0x4ffeeddd>
    80000570:	00000013          	nop
    80000574:	00112223          	sw	ra,4(sp)
    80000578:	00412703          	lw	a4,4(sp)
    8000057c:	300113b7          	lui	t2,0x30011
    80000580:	2233839b          	addiw	t2,t2,547 # 30011223 <_start-0x4ffeeddd>
    80000584:	10771863          	bne	a4,t2,80000694 <fail>
    80000588:	00120213          	addi	tp,tp,1 # 1 <_start-0x7fffffff>
    8000058c:	00200293          	li	t0,2
    80000590:	fc5218e3          	bne	tp,t0,80000560 <test_19+0x8>

0000000080000594 <test_20>:
    80000594:	01400193          	li	gp,20
    80000598:	00000213          	li	tp,0
    8000059c:	00002117          	auipc	sp,0x2
    800005a0:	a6410113          	addi	sp,sp,-1436 # 80002000 <begin_signature>
    800005a4:	330010b7          	lui	ra,0x33001
    800005a8:	1220809b          	addiw	ra,ra,290 # 33001122 <_start-0x4cffeede>
    800005ac:	00000013          	nop
    800005b0:	00000013          	nop
    800005b4:	00112423          	sw	ra,8(sp)
    800005b8:	00812703          	lw	a4,8(sp)
    800005bc:	330013b7          	lui	t2,0x33001
    800005c0:	1223839b          	addiw	t2,t2,290 # 33001122 <_start-0x4cffeede>
    800005c4:	0c771863          	bne	a4,t2,80000694 <fail>
    800005c8:	00120213          	addi	tp,tp,1 # 1 <_start-0x7fffffff>
    800005cc:	00200293          	li	t0,2
    800005d0:	fc5216e3          	bne	tp,t0,8000059c <test_20+0x8>

00000000800005d4 <test_21>:
    800005d4:	01500193          	li	gp,21
    800005d8:	00000213          	li	tp,0
    800005dc:	00002117          	auipc	sp,0x2
    800005e0:	a2410113          	addi	sp,sp,-1500 # 80002000 <begin_signature>
    800005e4:	00000013          	nop
    800005e8:	233000b7          	lui	ra,0x23300
    800005ec:	1120809b          	addiw	ra,ra,274 # 23300112 <_start-0x5ccffeee>
    800005f0:	00112623          	sw	ra,12(sp)
    800005f4:	00c12703          	lw	a4,12(sp)
    800005f8:	233003b7          	lui	t2,0x23300
    800005fc:	1123839b          	addiw	t2,t2,274 # 23300112 <_start-0x5ccffeee>
    80000600:	08771a63          	bne	a4,t2,80000694 <fail>
    80000604:	00120213          	addi	tp,tp,1 # 1 <_start-0x7fffffff>
    80000608:	00200293          	li	t0,2
    8000060c:	fc5218e3          	bne	tp,t0,800005dc <test_21+0x8>

0000000080000610 <test_22>:
    80000610:	01600193          	li	gp,22
    80000614:	00000213          	li	tp,0
    80000618:	00002117          	auipc	sp,0x2
    8000061c:	9e810113          	addi	sp,sp,-1560 # 80002000 <begin_signature>
    80000620:	00000013          	nop
    80000624:	223300b7          	lui	ra,0x22330
    80000628:	0110809b          	addiw	ra,ra,17 # 22330011 <_start-0x5dccffef>
    8000062c:	00000013          	nop
    80000630:	00112823          	sw	ra,16(sp)
    80000634:	01012703          	lw	a4,16(sp)
    80000638:	223303b7          	lui	t2,0x22330
    8000063c:	0113839b          	addiw	t2,t2,17 # 22330011 <_start-0x5dccffef>
    80000640:	04771a63          	bne	a4,t2,80000694 <fail>
    80000644:	00120213          	addi	tp,tp,1 # 1 <_start-0x7fffffff>
    80000648:	00200293          	li	t0,2
    8000064c:	fc5216e3          	bne	tp,t0,80000618 <test_22+0x8>

0000000080000650 <test_23>:
    80000650:	01700193          	li	gp,23
    80000654:	00000213          	li	tp,0
    80000658:	00002117          	auipc	sp,0x2
    8000065c:	9a810113          	addi	sp,sp,-1624 # 80002000 <begin_signature>
    80000660:	00000013          	nop
    80000664:	00000013          	nop
    80000668:	122330b7          	lui	ra,0x12233
    8000066c:	0010809b          	addiw	ra,ra,1 # 12233001 <_start-0x6ddccfff>
    80000670:	00112a23          	sw	ra,20(sp)
    80000674:	01412703          	lw	a4,20(sp)
    80000678:	122333b7          	lui	t2,0x12233
    8000067c:	0013839b          	addiw	t2,t2,1 # 12233001 <_start-0x6ddccfff>
    80000680:	00771a63          	bne	a4,t2,80000694 <fail>
    80000684:	00120213          	addi	tp,tp,1 # 1 <_start-0x7fffffff>
    80000688:	00200293          	li	t0,2
    8000068c:	fc5216e3          	bne	tp,t0,80000658 <test_23+0x8>
    80000690:	02301063          	bne	zero,gp,800006b0 <pass>

0000000080000694 <fail>:
    80000694:	0ff0000f          	fence
    80000698:	00018063          	beqz	gp,80000698 <fail+0x4>
    8000069c:	00119193          	slli	gp,gp,0x1
    800006a0:	0011e193          	ori	gp,gp,1
    800006a4:	05d00893          	li	a7,93
    800006a8:	00018513          	mv	a0,gp
    800006ac:	00000073          	ecall

00000000800006b0 <pass>:
    800006b0:	0ff0000f          	fence
    800006b4:	00100193          	li	gp,1
    800006b8:	05d00893          	li	a7,93
    800006bc:	00000513          	li	a0,0
    800006c0:	00000073          	ecall
    800006c4:	c0001073          	unimp
    800006c8:	0000                	.insn	2, 0x
    800006ca:	0000                	.insn	2, 0x
    800006cc:	0000                	.insn	2, 0x
    800006ce:	0000                	.insn	2, 0x
    800006d0:	0000                	.insn	2, 0x
    800006d2:	0000                	.insn	2, 0x
    800006d4:	0000                	.insn	2, 0x
    800006d6:	0000                	.insn	2, 0x
    800006d8:	0000                	.insn	2, 0x
    800006da:	0000                	.insn	2, 0x
    800006dc:	0000                	.insn	2, 0x
    800006de:	0000                	.insn	2, 0x
    800006e0:	0000                	.insn	2, 0x
    800006e2:	0000                	.insn	2, 0x
    800006e4:	0000                	.insn	2, 0x
    800006e6:	0000                	.insn	2, 0x
    800006e8:	0000                	.insn	2, 0x
    800006ea:	0000                	.insn	2, 0x
    800006ec:	0000                	.insn	2, 0x
    800006ee:	0000                	.insn	2, 0x
    800006f0:	0000                	.insn	2, 0x
    800006f2:	0000                	.insn	2, 0x
    800006f4:	0000                	.insn	2, 0x
    800006f6:	0000                	.insn	2, 0x
    800006f8:	0000                	.insn	2, 0x
    800006fa:	0000                	.insn	2, 0x
