
rv64ui-p-addiw:     file format elf64-littleriscv


Disassembly of section .text.init:

0000000080000000 <_start>:
    80000000:	0500006f          	j	80000050 <reset_vector>

0000000080000004 <trap_vector>:
    80000004:	34202f73          	csrr	t5,mcause
    80000008:	00800f93          	li	t6,8
    8000000c:	03ff0863          	beq	t5,t6,8000003c <write_tohost>
    80000010:	00900f93          	li	t6,9
    80000014:	03ff0463          	beq	t5,t6,8000003c <write_tohost>
    80000018:	00b00f93          	li	t6,11
    8000001c:	03ff0063          	beq	t5,t6,8000003c <write_tohost>
    80000020:	00000f13          	li	t5,0
    80000024:	000f0463          	beqz	t5,8000002c <trap_vector+0x28>
    80000028:	000f0067          	jr	t5
    8000002c:	34202f73          	csrr	t5,mcause
    80000030:	000f5463          	bgez	t5,80000038 <handle_exception>
    80000034:	0040006f          	j	80000038 <handle_exception>

0000000080000038 <handle_exception>:
    80000038:	5391e193          	ori	gp,gp,1337

000000008000003c <write_tohost>:
    8000003c:	00001f17          	auipc	t5,0x1
    80000040:	fc3f2223          	sw	gp,-60(t5) # 80001000 <tohost>
    80000044:	00001f17          	auipc	t5,0x1
    80000048:	fc0f2023          	sw	zero,-64(t5) # 80001004 <tohost+0x4>
    8000004c:	ff1ff06f          	j	8000003c <write_tohost>

0000000080000050 <reset_vector>:
    80000050:	00000093          	li	ra,0
    80000054:	00000113          	li	sp,0
    80000058:	00000193          	li	gp,0
    8000005c:	00000213          	li	tp,0
    80000060:	00000293          	li	t0,0
    80000064:	00000313          	li	t1,0
    80000068:	00000393          	li	t2,0
    8000006c:	00000413          	li	s0,0
    80000070:	00000493          	li	s1,0
    80000074:	00000513          	li	a0,0
    80000078:	00000593          	li	a1,0
    8000007c:	00000613          	li	a2,0
    80000080:	00000693          	li	a3,0
    80000084:	00000713          	li	a4,0
    80000088:	00000793          	li	a5,0
    8000008c:	00000813          	li	a6,0
    80000090:	00000893          	li	a7,0
    80000094:	00000913          	li	s2,0
    80000098:	00000993          	li	s3,0
    8000009c:	00000a13          	li	s4,0
    800000a0:	00000a93          	li	s5,0
    800000a4:	00000b13          	li	s6,0
    800000a8:	00000b93          	li	s7,0
    800000ac:	00000c13          	li	s8,0
    800000b0:	00000c93          	li	s9,0
    800000b4:	00000d13          	li	s10,0
    800000b8:	00000d93          	li	s11,0
    800000bc:	00000e13          	li	t3,0
    800000c0:	00000e93          	li	t4,0
    800000c4:	00000f13          	li	t5,0
    800000c8:	00000f93          	li	t6,0
    800000cc:	f1402573          	csrr	a0,mhartid
    800000d0:	00051063          	bnez	a0,800000d0 <reset_vector+0x80>
    800000d4:	00000297          	auipc	t0,0x0
    800000d8:	01028293          	addi	t0,t0,16 # 800000e4 <reset_vector+0x94>
    800000dc:	30529073          	csrw	mtvec,t0
    800000e0:	74445073          	csrwi	0x744,8
    800000e4:	00000297          	auipc	t0,0x0
    800000e8:	01028293          	addi	t0,t0,16 # 800000f4 <reset_vector+0xa4>
    800000ec:	30529073          	csrw	mtvec,t0
    800000f0:	18005073          	csrwi	satp,0
    800000f4:	00000297          	auipc	t0,0x0
    800000f8:	02428293          	addi	t0,t0,36 # 80000118 <reset_vector+0xc8>
    800000fc:	30529073          	csrw	mtvec,t0
    80000100:	0010029b          	addiw	t0,zero,1
    80000104:	03529293          	slli	t0,t0,0x35
    80000108:	fff28293          	addi	t0,t0,-1
    8000010c:	3b029073          	csrw	pmpaddr0,t0
    80000110:	01f00293          	li	t0,31
    80000114:	3a029073          	csrw	pmpcfg0,t0
    80000118:	30405073          	csrwi	mie,0
    8000011c:	00000297          	auipc	t0,0x0
    80000120:	01428293          	addi	t0,t0,20 # 80000130 <reset_vector+0xe0>
    80000124:	30529073          	csrw	mtvec,t0
    80000128:	30205073          	csrwi	medeleg,0
    8000012c:	30305073          	csrwi	mideleg,0
    80000130:	00000193          	li	gp,0
    80000134:	00000297          	auipc	t0,0x0
    80000138:	ed028293          	addi	t0,t0,-304 # 80000004 <trap_vector>
    8000013c:	30529073          	csrw	mtvec,t0
    80000140:	00100513          	li	a0,1
    80000144:	01f51513          	slli	a0,a0,0x1f
    80000148:	00055c63          	bgez	a0,80000160 <reset_vector+0x110>
    8000014c:	0ff0000f          	fence
    80000150:	00100193          	li	gp,1
    80000154:	05d00893          	li	a7,93
    80000158:	00000513          	li	a0,0
    8000015c:	00000073          	ecall
    80000160:	00000293          	li	t0,0
    80000164:	00028a63          	beqz	t0,80000178 <reset_vector+0x128>
    80000168:	10529073          	csrw	stvec,t0
    8000016c:	0000b2b7          	lui	t0,0xb
    80000170:	1092829b          	addiw	t0,t0,265 # b109 <_start-0x7fff4ef7>
    80000174:	30229073          	csrw	medeleg,t0
    80000178:	30005073          	csrwi	mstatus,0
    8000017c:	00000297          	auipc	t0,0x0
    80000180:	01428293          	addi	t0,t0,20 # 80000190 <test_2>
    80000184:	34129073          	csrw	mepc,t0
    80000188:	f1402573          	csrr	a0,mhartid
    8000018c:	30200073          	mret

0000000080000190 <test_2>:
    80000190:	00200193          	li	gp,2
    80000194:	00000693          	li	a3,0
    80000198:	0006871b          	sext.w	a4,a3
    8000019c:	00000393          	li	t2,0
    800001a0:	26771c63          	bne	a4,t2,80000418 <fail>

00000000800001a4 <test_3>:
    800001a4:	00300193          	li	gp,3
    800001a8:	00100693          	li	a3,1
    800001ac:	0016871b          	addiw	a4,a3,1
    800001b0:	00200393          	li	t2,2
    800001b4:	26771263          	bne	a4,t2,80000418 <fail>

00000000800001b8 <test_4>:
    800001b8:	00400193          	li	gp,4
    800001bc:	00300693          	li	a3,3
    800001c0:	0076871b          	addiw	a4,a3,7
    800001c4:	00a00393          	li	t2,10
    800001c8:	24771863          	bne	a4,t2,80000418 <fail>

00000000800001cc <test_5>:
    800001cc:	00500193          	li	gp,5
    800001d0:	00000693          	li	a3,0
    800001d4:	8006871b          	addiw	a4,a3,-2048
    800001d8:	80000393          	li	t2,-2048
    800001dc:	22771e63          	bne	a4,t2,80000418 <fail>

00000000800001e0 <test_6>:
    800001e0:	00600193          	li	gp,6
    800001e4:	800006b7          	lui	a3,0x80000
    800001e8:	0006871b          	sext.w	a4,a3
    800001ec:	800003b7          	lui	t2,0x80000
    800001f0:	22771463          	bne	a4,t2,80000418 <fail>

00000000800001f4 <test_7>:
    800001f4:	00700193          	li	gp,7
    800001f8:	800006b7          	lui	a3,0x80000
    800001fc:	8006871b          	addiw	a4,a3,-2048 # 7ffff800 <_start-0x800>
    80000200:	800003b7          	lui	t2,0x80000
    80000204:	8003839b          	addiw	t2,t2,-2048 # 7ffff800 <_start-0x800>
    80000208:	20771863          	bne	a4,t2,80000418 <fail>

000000008000020c <test_8>:
    8000020c:	00800193          	li	gp,8
    80000210:	00000693          	li	a3,0
    80000214:	7ff6871b          	addiw	a4,a3,2047
    80000218:	7ff00393          	li	t2,2047
    8000021c:	1e771e63          	bne	a4,t2,80000418 <fail>

0000000080000220 <test_9>:
    80000220:	00900193          	li	gp,9
    80000224:	800006b7          	lui	a3,0x80000
    80000228:	fff6869b          	addiw	a3,a3,-1 # 7fffffff <_start-0x1>
    8000022c:	0006871b          	sext.w	a4,a3
    80000230:	800003b7          	lui	t2,0x80000
    80000234:	fff3839b          	addiw	t2,t2,-1 # 7fffffff <_start-0x1>
    80000238:	1e771063          	bne	a4,t2,80000418 <fail>

000000008000023c <test_10>:
    8000023c:	00a00193          	li	gp,10
    80000240:	800006b7          	lui	a3,0x80000
    80000244:	fff6869b          	addiw	a3,a3,-1 # 7fffffff <_start-0x1>
    80000248:	7ff6871b          	addiw	a4,a3,2047
    8000024c:	800003b7          	lui	t2,0x80000
    80000250:	7fe3839b          	addiw	t2,t2,2046 # ffffffff800007fe <_end+0xfffffffeffffe7fe>
    80000254:	1c771263          	bne	a4,t2,80000418 <fail>

0000000080000258 <test_11>:
    80000258:	00b00193          	li	gp,11
    8000025c:	800006b7          	lui	a3,0x80000
    80000260:	7ff6871b          	addiw	a4,a3,2047 # ffffffff800007ff <_end+0xfffffffeffffe7ff>
    80000264:	800003b7          	lui	t2,0x80000
    80000268:	7ff3839b          	addiw	t2,t2,2047 # ffffffff800007ff <_end+0xfffffffeffffe7ff>
    8000026c:	1a771663          	bne	a4,t2,80000418 <fail>

0000000080000270 <test_12>:
    80000270:	00c00193          	li	gp,12
    80000274:	800006b7          	lui	a3,0x80000
    80000278:	fff6869b          	addiw	a3,a3,-1 # 7fffffff <_start-0x1>
    8000027c:	8006871b          	addiw	a4,a3,-2048
    80000280:	7ffff3b7          	lui	t2,0x7ffff
    80000284:	7ff3839b          	addiw	t2,t2,2047 # 7ffff7ff <_start-0x801>
    80000288:	18771863          	bne	a4,t2,80000418 <fail>

000000008000028c <test_13>:
    8000028c:	00d00193          	li	gp,13
    80000290:	00000693          	li	a3,0
    80000294:	fff6871b          	addiw	a4,a3,-1
    80000298:	fff00393          	li	t2,-1
    8000029c:	16771e63          	bne	a4,t2,80000418 <fail>

00000000800002a0 <test_14>:
    800002a0:	00e00193          	li	gp,14
    800002a4:	fff00693          	li	a3,-1
    800002a8:	0016871b          	addiw	a4,a3,1
    800002ac:	00000393          	li	t2,0
    800002b0:	16771463          	bne	a4,t2,80000418 <fail>

00000000800002b4 <test_15>:
    800002b4:	00f00193          	li	gp,15
    800002b8:	fff00693          	li	a3,-1
    800002bc:	fff6871b          	addiw	a4,a3,-1
    800002c0:	ffe00393          	li	t2,-2
    800002c4:	14771a63          	bne	a4,t2,80000418 <fail>

00000000800002c8 <test_16>:
    800002c8:	01000193          	li	gp,16
    800002cc:	800006b7          	lui	a3,0x80000
    800002d0:	fff6869b          	addiw	a3,a3,-1 # 7fffffff <_start-0x1>
    800002d4:	0016871b          	addiw	a4,a3,1
    800002d8:	800003b7          	lui	t2,0x80000
    800002dc:	12771e63          	bne	a4,t2,80000418 <fail>

00000000800002e0 <test_17>:
    800002e0:	01100193          	li	gp,17
    800002e4:	00d00593          	li	a1,13
    800002e8:	00b5859b          	addiw	a1,a1,11
    800002ec:	01800393          	li	t2,24
    800002f0:	12759463          	bne	a1,t2,80000418 <fail>

00000000800002f4 <test_18>:
    800002f4:	01200193          	li	gp,18
    800002f8:	00000213          	li	tp,0
    800002fc:	00d00093          	li	ra,13
    80000300:	00b0871b          	addiw	a4,ra,11
    80000304:	00070313          	mv	t1,a4
    80000308:	00120213          	addi	tp,tp,1 # 1 <_start-0x7fffffff>
    8000030c:	00200293          	li	t0,2
    80000310:	fe5216e3          	bne	tp,t0,800002fc <test_18+0x8>
    80000314:	01800393          	li	t2,24
    80000318:	10731063          	bne	t1,t2,80000418 <fail>

000000008000031c <test_19>:
    8000031c:	01300193          	li	gp,19
    80000320:	00000213          	li	tp,0
    80000324:	00d00093          	li	ra,13
    80000328:	00a0871b          	addiw	a4,ra,10
    8000032c:	00000013          	nop
    80000330:	00070313          	mv	t1,a4
    80000334:	00120213          	addi	tp,tp,1 # 1 <_start-0x7fffffff>
    80000338:	00200293          	li	t0,2
    8000033c:	fe5214e3          	bne	tp,t0,80000324 <test_19+0x8>
    80000340:	01700393          	li	t2,23
    80000344:	0c731a63          	bne	t1,t2,80000418 <fail>

0000000080000348 <test_20>:
    80000348:	01400193          	li	gp,20
    8000034c:	00000213          	li	tp,0
    80000350:	00d00093          	li	ra,13
    80000354:	0090871b          	addiw	a4,ra,9
    80000358:	00000013          	nop
    8000035c:	00000013          	nop
    80000360:	00070313          	mv	t1,a4
    80000364:	00120213          	addi	tp,tp,1 # 1 <_start-0x7fffffff>
    80000368:	00200293          	li	t0,2
    8000036c:	fe5212e3          	bne	tp,t0,80000350 <test_20+0x8>
    80000370:	01600393          	li	t2,22
    80000374:	0a731263          	bne	t1,t2,80000418 <fail>

0000000080000378 <test_21>:
    80000378:	01500193          	li	gp,21
    8000037c:	00000213          	li	tp,0
    80000380:	00d00093          	li	ra,13
    80000384:	00b0871b          	addiw	a4,ra,11
    80000388:	00120213          	addi	tp,tp,1 # 1 <_start-0x7fffffff>
    8000038c:	00200293          	li	t0,2
    80000390:	fe5218e3          	bne	tp,t0,80000380 <test_21+0x8>
    80000394:	01800393          	li	t2,24
    80000398:	08771063          	bne	a4,t2,80000418 <fail>

000000008000039c <test_22>:
    8000039c:	01600193          	li	gp,22
    800003a0:	00000213          	li	tp,0
    800003a4:	00d00093          	li	ra,13
    800003a8:	00000013          	nop
    800003ac:	00a0871b          	addiw	a4,ra,10
    800003b0:	00120213          	addi	tp,tp,1 # 1 <_start-0x7fffffff>
    800003b4:	00200293          	li	t0,2
    800003b8:	fe5216e3          	bne	tp,t0,800003a4 <test_22+0x8>
    800003bc:	01700393          	li	t2,23
    800003c0:	04771c63          	bne	a4,t2,80000418 <fail>

00000000800003c4 <test_23>:
    800003c4:	01700193          	li	gp,23
    800003c8:	00000213          	li	tp,0
    800003cc:	00d00093          	li	ra,13
    800003d0:	00000013          	nop
    800003d4:	00000013          	nop
    800003d8:	0090871b          	addiw	a4,ra,9
    800003dc:	00120213          	addi	tp,tp,1 # 1 <_start-0x7fffffff>
    800003e0:	00200293          	li	t0,2
    800003e4:	fe5214e3          	bne	tp,t0,800003cc <test_23+0x8>
    800003e8:	01600393          	li	t2,22
    800003ec:	02771663          	bne	a4,t2,80000418 <fail>

00000000800003f0 <test_24>:
    800003f0:	01800193          	li	gp,24
    800003f4:	0200009b          	addiw	ra,zero,32
    800003f8:	02000393          	li	t2,32
    800003fc:	00709e63          	bne	ra,t2,80000418 <fail>

0000000080000400 <test_25>:
    80000400:	01900193          	li	gp,25
    80000404:	02100093          	li	ra,33
    80000408:	0320801b          	addiw	zero,ra,50
    8000040c:	00000393          	li	t2,0
    80000410:	00701463          	bne	zero,t2,80000418 <fail>
    80000414:	02301063          	bne	zero,gp,80000434 <pass>

0000000080000418 <fail>:
    80000418:	0ff0000f          	fence
    8000041c:	00018063          	beqz	gp,8000041c <fail+0x4>
    80000420:	00119193          	slli	gp,gp,0x1
    80000424:	0011e193          	ori	gp,gp,1
    80000428:	05d00893          	li	a7,93
    8000042c:	00018513          	mv	a0,gp
    80000430:	00000073          	ecall

0000000080000434 <pass>:
    80000434:	0ff0000f          	fence
    80000438:	00100193          	li	gp,1
    8000043c:	05d00893          	li	a7,93
    80000440:	00000513          	li	a0,0
    80000444:	00000073          	ecall
    80000448:	c0001073          	unimp
    8000044c:	0000                	.insn	2, 0x
    8000044e:	0000                	.insn	2, 0x
    80000450:	0000                	.insn	2, 0x
    80000452:	0000                	.insn	2, 0x
    80000454:	0000                	.insn	2, 0x
    80000456:	0000                	.insn	2, 0x
    80000458:	0000                	.insn	2, 0x
    8000045a:	0000                	.insn	2, 0x
    8000045c:	0000                	.insn	2, 0x
    8000045e:	0000                	.insn	2, 0x
    80000460:	0000                	.insn	2, 0x
    80000462:	0000                	.insn	2, 0x
    80000464:	0000                	.insn	2, 0x
    80000466:	0000                	.insn	2, 0x
    80000468:	0000                	.insn	2, 0x
    8000046a:	0000                	.insn	2, 0x
    8000046c:	0000                	.insn	2, 0x
    8000046e:	0000                	.insn	2, 0x
    80000470:	0000                	.insn	2, 0x
    80000472:	0000                	.insn	2, 0x
    80000474:	0000                	.insn	2, 0x
    80000476:	0000                	.insn	2, 0x
    80000478:	0000                	.insn	2, 0x
    8000047a:	0000                	.insn	2, 0x
