
rv64ui-p-sllw:     file format elf64-littleriscv


Disassembly of section .text.init:

0000000080000000 <_start>:
    80000000:	0500006f          	j	80000050 <reset_vector>

0000000080000004 <trap_vector>:
    80000004:	34202f73          	csrr	t5,mcause
    80000008:	00800f93          	li	t6,8
    8000000c:	03ff0863          	beq	t5,t6,8000003c <write_tohost>
    80000010:	00900f93          	li	t6,9
    80000014:	03ff0463          	beq	t5,t6,8000003c <write_tohost>
    80000018:	00b00f93          	li	t6,11
    8000001c:	03ff0063          	beq	t5,t6,8000003c <write_tohost>
    80000020:	00000f13          	li	t5,0
    80000024:	000f0463          	beqz	t5,8000002c <trap_vector+0x28>
    80000028:	000f0067          	jr	t5
    8000002c:	34202f73          	csrr	t5,mcause
    80000030:	000f5463          	bgez	t5,80000038 <handle_exception>
    80000034:	0040006f          	j	80000038 <handle_exception>

0000000080000038 <handle_exception>:
    80000038:	5391e193          	ori	gp,gp,1337

000000008000003c <write_tohost>:
    8000003c:	00001f17          	auipc	t5,0x1
    80000040:	fc3f2223          	sw	gp,-60(t5) # 80001000 <tohost>
    80000044:	00001f17          	auipc	t5,0x1
    80000048:	fc0f2023          	sw	zero,-64(t5) # 80001004 <tohost+0x4>
    8000004c:	ff1ff06f          	j	8000003c <write_tohost>

0000000080000050 <reset_vector>:
    80000050:	00000093          	li	ra,0
    80000054:	00000113          	li	sp,0
    80000058:	00000193          	li	gp,0
    8000005c:	00000213          	li	tp,0
    80000060:	00000293          	li	t0,0
    80000064:	00000313          	li	t1,0
    80000068:	00000393          	li	t2,0
    8000006c:	00000413          	li	s0,0
    80000070:	00000493          	li	s1,0
    80000074:	00000513          	li	a0,0
    80000078:	00000593          	li	a1,0
    8000007c:	00000613          	li	a2,0
    80000080:	00000693          	li	a3,0
    80000084:	00000713          	li	a4,0
    80000088:	00000793          	li	a5,0
    8000008c:	00000813          	li	a6,0
    80000090:	00000893          	li	a7,0
    80000094:	00000913          	li	s2,0
    80000098:	00000993          	li	s3,0
    8000009c:	00000a13          	li	s4,0
    800000a0:	00000a93          	li	s5,0
    800000a4:	00000b13          	li	s6,0
    800000a8:	00000b93          	li	s7,0
    800000ac:	00000c13          	li	s8,0
    800000b0:	00000c93          	li	s9,0
    800000b4:	00000d13          	li	s10,0
    800000b8:	00000d93          	li	s11,0
    800000bc:	00000e13          	li	t3,0
    800000c0:	00000e93          	li	t4,0
    800000c4:	00000f13          	li	t5,0
    800000c8:	00000f93          	li	t6,0
    800000cc:	f1402573          	csrr	a0,mhartid
    800000d0:	00051063          	bnez	a0,800000d0 <reset_vector+0x80>
    800000d4:	00000297          	auipc	t0,0x0
    800000d8:	01028293          	addi	t0,t0,16 # 800000e4 <reset_vector+0x94>
    800000dc:	30529073          	csrw	mtvec,t0
    800000e0:	74445073          	csrwi	0x744,8
    800000e4:	00000297          	auipc	t0,0x0
    800000e8:	01028293          	addi	t0,t0,16 # 800000f4 <reset_vector+0xa4>
    800000ec:	30529073          	csrw	mtvec,t0
    800000f0:	18005073          	csrwi	satp,0
    800000f4:	00000297          	auipc	t0,0x0
    800000f8:	02428293          	addi	t0,t0,36 # 80000118 <reset_vector+0xc8>
    800000fc:	30529073          	csrw	mtvec,t0
    80000100:	0010029b          	addiw	t0,zero,1
    80000104:	03529293          	slli	t0,t0,0x35
    80000108:	fff28293          	addi	t0,t0,-1
    8000010c:	3b029073          	csrw	pmpaddr0,t0
    80000110:	01f00293          	li	t0,31
    80000114:	3a029073          	csrw	pmpcfg0,t0
    80000118:	30405073          	csrwi	mie,0
    8000011c:	00000297          	auipc	t0,0x0
    80000120:	01428293          	addi	t0,t0,20 # 80000130 <reset_vector+0xe0>
    80000124:	30529073          	csrw	mtvec,t0
    80000128:	30205073          	csrwi	medeleg,0
    8000012c:	30305073          	csrwi	mideleg,0
    80000130:	00000193          	li	gp,0
    80000134:	00000297          	auipc	t0,0x0
    80000138:	ed028293          	addi	t0,t0,-304 # 80000004 <trap_vector>
    8000013c:	30529073          	csrw	mtvec,t0
    80000140:	00100513          	li	a0,1
    80000144:	01f51513          	slli	a0,a0,0x1f
    80000148:	00055c63          	bgez	a0,80000160 <reset_vector+0x110>
    8000014c:	0ff0000f          	fence
    80000150:	00100193          	li	gp,1
    80000154:	05d00893          	li	a7,93
    80000158:	00000513          	li	a0,0
    8000015c:	00000073          	ecall
    80000160:	00000293          	li	t0,0
    80000164:	00028a63          	beqz	t0,80000178 <reset_vector+0x128>
    80000168:	10529073          	csrw	stvec,t0
    8000016c:	0000b2b7          	lui	t0,0xb
    80000170:	1092829b          	addiw	t0,t0,265 # b109 <_start-0x7fff4ef7>
    80000174:	30229073          	csrw	medeleg,t0
    80000178:	30005073          	csrwi	mstatus,0
    8000017c:	00000297          	auipc	t0,0x0
    80000180:	01428293          	addi	t0,t0,20 # 80000190 <test_2>
    80000184:	34129073          	csrw	mepc,t0
    80000188:	f1402573          	csrr	a0,mhartid
    8000018c:	30200073          	mret

0000000080000190 <test_2>:
    80000190:	00200193          	li	gp,2
    80000194:	00100593          	li	a1,1
    80000198:	00000613          	li	a2,0
    8000019c:	00c5973b          	sllw	a4,a1,a2
    800001a0:	00100393          	li	t2,1
    800001a4:	5e771c63          	bne	a4,t2,8000079c <fail>

00000000800001a8 <test_3>:
    800001a8:	00300193          	li	gp,3
    800001ac:	00100593          	li	a1,1
    800001b0:	00100613          	li	a2,1
    800001b4:	00c5973b          	sllw	a4,a1,a2
    800001b8:	00200393          	li	t2,2
    800001bc:	5e771063          	bne	a4,t2,8000079c <fail>

00000000800001c0 <test_4>:
    800001c0:	00400193          	li	gp,4
    800001c4:	00100593          	li	a1,1
    800001c8:	00700613          	li	a2,7
    800001cc:	00c5973b          	sllw	a4,a1,a2
    800001d0:	08000393          	li	t2,128
    800001d4:	5c771463          	bne	a4,t2,8000079c <fail>

00000000800001d8 <test_5>:
    800001d8:	00500193          	li	gp,5
    800001dc:	00100593          	li	a1,1
    800001e0:	00e00613          	li	a2,14
    800001e4:	00c5973b          	sllw	a4,a1,a2
    800001e8:	000043b7          	lui	t2,0x4
    800001ec:	5a771863          	bne	a4,t2,8000079c <fail>

00000000800001f0 <test_6>:
    800001f0:	00600193          	li	gp,6
    800001f4:	00100593          	li	a1,1
    800001f8:	01f00613          	li	a2,31
    800001fc:	00c5973b          	sllw	a4,a1,a2
    80000200:	800003b7          	lui	t2,0x80000
    80000204:	58771c63          	bne	a4,t2,8000079c <fail>

0000000080000208 <test_7>:
    80000208:	00700193          	li	gp,7
    8000020c:	fff00593          	li	a1,-1
    80000210:	00000613          	li	a2,0
    80000214:	00c5973b          	sllw	a4,a1,a2
    80000218:	fff00393          	li	t2,-1
    8000021c:	58771063          	bne	a4,t2,8000079c <fail>

0000000080000220 <test_8>:
    80000220:	00800193          	li	gp,8
    80000224:	fff00593          	li	a1,-1
    80000228:	00100613          	li	a2,1
    8000022c:	00c5973b          	sllw	a4,a1,a2
    80000230:	ffe00393          	li	t2,-2
    80000234:	56771463          	bne	a4,t2,8000079c <fail>

0000000080000238 <test_9>:
    80000238:	00900193          	li	gp,9
    8000023c:	fff00593          	li	a1,-1
    80000240:	00700613          	li	a2,7
    80000244:	00c5973b          	sllw	a4,a1,a2
    80000248:	f8000393          	li	t2,-128
    8000024c:	54771863          	bne	a4,t2,8000079c <fail>

0000000080000250 <test_10>:
    80000250:	00a00193          	li	gp,10
    80000254:	fff00593          	li	a1,-1
    80000258:	00e00613          	li	a2,14
    8000025c:	00c5973b          	sllw	a4,a1,a2
    80000260:	ffffc3b7          	lui	t2,0xffffc
    80000264:	52771c63          	bne	a4,t2,8000079c <fail>

0000000080000268 <test_11>:
    80000268:	00b00193          	li	gp,11
    8000026c:	fff00593          	li	a1,-1
    80000270:	01f00613          	li	a2,31
    80000274:	00c5973b          	sllw	a4,a1,a2
    80000278:	800003b7          	lui	t2,0x80000
    8000027c:	52771063          	bne	a4,t2,8000079c <fail>

0000000080000280 <test_12>:
    80000280:	00c00193          	li	gp,12
    80000284:	212125b7          	lui	a1,0x21212
    80000288:	1215859b          	addiw	a1,a1,289 # 21212121 <_start-0x5edededf>
    8000028c:	00000613          	li	a2,0
    80000290:	00c5973b          	sllw	a4,a1,a2
    80000294:	212123b7          	lui	t2,0x21212
    80000298:	1213839b          	addiw	t2,t2,289 # 21212121 <_start-0x5edededf>
    8000029c:	50771063          	bne	a4,t2,8000079c <fail>

00000000800002a0 <test_13>:
    800002a0:	00d00193          	li	gp,13
    800002a4:	212125b7          	lui	a1,0x21212
    800002a8:	1215859b          	addiw	a1,a1,289 # 21212121 <_start-0x5edededf>
    800002ac:	00100613          	li	a2,1
    800002b0:	00c5973b          	sllw	a4,a1,a2
    800002b4:	424243b7          	lui	t2,0x42424
    800002b8:	2423839b          	addiw	t2,t2,578 # 42424242 <_start-0x3dbdbdbe>
    800002bc:	4e771063          	bne	a4,t2,8000079c <fail>

00000000800002c0 <test_14>:
    800002c0:	00e00193          	li	gp,14
    800002c4:	212125b7          	lui	a1,0x21212
    800002c8:	1215859b          	addiw	a1,a1,289 # 21212121 <_start-0x5edededf>
    800002cc:	00700613          	li	a2,7
    800002d0:	00c5973b          	sllw	a4,a1,a2
    800002d4:	909093b7          	lui	t2,0x90909
    800002d8:	0803839b          	addiw	t2,t2,128 # ffffffff90909080 <_end+0xffffffff10907080>
    800002dc:	4c771063          	bne	a4,t2,8000079c <fail>

00000000800002e0 <test_15>:
    800002e0:	00f00193          	li	gp,15
    800002e4:	212125b7          	lui	a1,0x21212
    800002e8:	1215859b          	addiw	a1,a1,289 # 21212121 <_start-0x5edededf>
    800002ec:	00e00613          	li	a2,14
    800002f0:	00c5973b          	sllw	a4,a1,a2
    800002f4:	484843b7          	lui	t2,0x48484
    800002f8:	4a771263          	bne	a4,t2,8000079c <fail>

00000000800002fc <test_16>:
    800002fc:	01000193          	li	gp,16
    80000300:	212125b7          	lui	a1,0x21212
    80000304:	1215859b          	addiw	a1,a1,289 # 21212121 <_start-0x5edededf>
    80000308:	01f00613          	li	a2,31
    8000030c:	00c5973b          	sllw	a4,a1,a2
    80000310:	800003b7          	lui	t2,0x80000
    80000314:	48771463          	bne	a4,t2,8000079c <fail>

0000000080000318 <test_17>:
    80000318:	01100193          	li	gp,17
    8000031c:	212125b7          	lui	a1,0x21212
    80000320:	1215859b          	addiw	a1,a1,289 # 21212121 <_start-0x5edededf>
    80000324:	fe000613          	li	a2,-32
    80000328:	00c5973b          	sllw	a4,a1,a2
    8000032c:	212123b7          	lui	t2,0x21212
    80000330:	1213839b          	addiw	t2,t2,289 # 21212121 <_start-0x5edededf>
    80000334:	46771463          	bne	a4,t2,8000079c <fail>

0000000080000338 <test_18>:
    80000338:	01200193          	li	gp,18
    8000033c:	212125b7          	lui	a1,0x21212
    80000340:	1215859b          	addiw	a1,a1,289 # 21212121 <_start-0x5edededf>
    80000344:	fe100613          	li	a2,-31
    80000348:	00c5973b          	sllw	a4,a1,a2
    8000034c:	424243b7          	lui	t2,0x42424
    80000350:	2423839b          	addiw	t2,t2,578 # 42424242 <_start-0x3dbdbdbe>
    80000354:	44771463          	bne	a4,t2,8000079c <fail>

0000000080000358 <test_19>:
    80000358:	01300193          	li	gp,19
    8000035c:	212125b7          	lui	a1,0x21212
    80000360:	1215859b          	addiw	a1,a1,289 # 21212121 <_start-0x5edededf>
    80000364:	fe700613          	li	a2,-25
    80000368:	00c5973b          	sllw	a4,a1,a2
    8000036c:	909093b7          	lui	t2,0x90909
    80000370:	0803839b          	addiw	t2,t2,128 # ffffffff90909080 <_end+0xffffffff10907080>
    80000374:	42771463          	bne	a4,t2,8000079c <fail>

0000000080000378 <test_20>:
    80000378:	01400193          	li	gp,20
    8000037c:	212125b7          	lui	a1,0x21212
    80000380:	1215859b          	addiw	a1,a1,289 # 21212121 <_start-0x5edededf>
    80000384:	fee00613          	li	a2,-18
    80000388:	00c5973b          	sllw	a4,a1,a2
    8000038c:	484843b7          	lui	t2,0x48484
    80000390:	40771663          	bne	a4,t2,8000079c <fail>

0000000080000394 <test_21>:
    80000394:	01500193          	li	gp,21
    80000398:	212125b7          	lui	a1,0x21212
    8000039c:	1215859b          	addiw	a1,a1,289 # 21212121 <_start-0x5edededf>
    800003a0:	fff00613          	li	a2,-1
    800003a4:	00c5973b          	sllw	a4,a1,a2
    800003a8:	800003b7          	lui	t2,0x80000
    800003ac:	3e771863          	bne	a4,t2,8000079c <fail>

00000000800003b0 <test_44>:
    800003b0:	02c00193          	li	gp,44
    800003b4:	fff125b7          	lui	a1,0xfff12
    800003b8:	3455859b          	addiw	a1,a1,837 # fffffffffff12345 <_end+0xffffffff7ff10345>
    800003bc:	00c59593          	slli	a1,a1,0xc
    800003c0:	67858593          	addi	a1,a1,1656
    800003c4:	00000613          	li	a2,0
    800003c8:	00c5973b          	sllw	a4,a1,a2
    800003cc:	123453b7          	lui	t2,0x12345
    800003d0:	6783839b          	addiw	t2,t2,1656 # 12345678 <_start-0x6dcba988>
    800003d4:	3c771463          	bne	a4,t2,8000079c <fail>

00000000800003d8 <test_45>:
    800003d8:	02d00193          	li	gp,45
    800003dc:	fff125b7          	lui	a1,0xfff12
    800003e0:	3455859b          	addiw	a1,a1,837 # fffffffffff12345 <_end+0xffffffff7ff10345>
    800003e4:	00c59593          	slli	a1,a1,0xc
    800003e8:	67858593          	addi	a1,a1,1656
    800003ec:	00400613          	li	a2,4
    800003f0:	00c5973b          	sllw	a4,a1,a2
    800003f4:	234563b7          	lui	t2,0x23456
    800003f8:	7803839b          	addiw	t2,t2,1920 # 23456780 <_start-0x5cba9880>
    800003fc:	3a771063          	bne	a4,t2,8000079c <fail>

0000000080000400 <test_46>:
    80000400:	02e00193          	li	gp,46
    80000404:	000925b7          	lui	a1,0x92
    80000408:	3455859b          	addiw	a1,a1,837 # 92345 <_start-0x7ff6dcbb>
    8000040c:	00c59593          	slli	a1,a1,0xc
    80000410:	67858593          	addi	a1,a1,1656
    80000414:	00000613          	li	a2,0
    80000418:	00c5973b          	sllw	a4,a1,a2
    8000041c:	923453b7          	lui	t2,0x92345
    80000420:	6783839b          	addiw	t2,t2,1656 # ffffffff92345678 <_end+0xffffffff12343678>
    80000424:	36771c63          	bne	a4,t2,8000079c <fail>

0000000080000428 <test_47>:
    80000428:	02f00193          	li	gp,47
    8000042c:	000995b7          	lui	a1,0x99
    80000430:	3455859b          	addiw	a1,a1,837 # 99345 <_start-0x7ff66cbb>
    80000434:	00c59593          	slli	a1,a1,0xc
    80000438:	67858593          	addi	a1,a1,1656
    8000043c:	00400613          	li	a2,4
    80000440:	00c5973b          	sllw	a4,a1,a2
    80000444:	934563b7          	lui	t2,0x93456
    80000448:	7803839b          	addiw	t2,t2,1920 # ffffffff93456780 <_end+0xffffffff13454780>
    8000044c:	34771863          	bne	a4,t2,8000079c <fail>

0000000080000450 <test_22>:
    80000450:	01600193          	li	gp,22
    80000454:	00100593          	li	a1,1
    80000458:	00700613          	li	a2,7
    8000045c:	00c595bb          	sllw	a1,a1,a2
    80000460:	08000393          	li	t2,128
    80000464:	32759c63          	bne	a1,t2,8000079c <fail>

0000000080000468 <test_23>:
    80000468:	01700193          	li	gp,23
    8000046c:	00100593          	li	a1,1
    80000470:	00e00613          	li	a2,14
    80000474:	00c5963b          	sllw	a2,a1,a2
    80000478:	000043b7          	lui	t2,0x4
    8000047c:	32761063          	bne	a2,t2,8000079c <fail>

0000000080000480 <test_24>:
    80000480:	01800193          	li	gp,24
    80000484:	00300593          	li	a1,3
    80000488:	00b595bb          	sllw	a1,a1,a1
    8000048c:	01800393          	li	t2,24
    80000490:	30759663          	bne	a1,t2,8000079c <fail>

0000000080000494 <test_25>:
    80000494:	01900193          	li	gp,25
    80000498:	00000213          	li	tp,0
    8000049c:	00100093          	li	ra,1
    800004a0:	00700113          	li	sp,7
    800004a4:	0020973b          	sllw	a4,ra,sp
    800004a8:	00070313          	mv	t1,a4
    800004ac:	00120213          	addi	tp,tp,1 # 1 <_start-0x7fffffff>
    800004b0:	00200293          	li	t0,2
    800004b4:	fe5214e3          	bne	tp,t0,8000049c <test_25+0x8>
    800004b8:	08000393          	li	t2,128
    800004bc:	2e731063          	bne	t1,t2,8000079c <fail>

00000000800004c0 <test_26>:
    800004c0:	01a00193          	li	gp,26
    800004c4:	00000213          	li	tp,0
    800004c8:	00100093          	li	ra,1
    800004cc:	00e00113          	li	sp,14
    800004d0:	0020973b          	sllw	a4,ra,sp
    800004d4:	00000013          	nop
    800004d8:	00070313          	mv	t1,a4
    800004dc:	00120213          	addi	tp,tp,1 # 1 <_start-0x7fffffff>
    800004e0:	00200293          	li	t0,2
    800004e4:	fe5212e3          	bne	tp,t0,800004c8 <test_26+0x8>
    800004e8:	000043b7          	lui	t2,0x4
    800004ec:	2a731863          	bne	t1,t2,8000079c <fail>

00000000800004f0 <test_27>:
    800004f0:	01b00193          	li	gp,27
    800004f4:	00000213          	li	tp,0
    800004f8:	00100093          	li	ra,1
    800004fc:	01f00113          	li	sp,31
    80000500:	0020973b          	sllw	a4,ra,sp
    80000504:	00000013          	nop
    80000508:	00000013          	nop
    8000050c:	00070313          	mv	t1,a4
    80000510:	00120213          	addi	tp,tp,1 # 1 <_start-0x7fffffff>
    80000514:	00200293          	li	t0,2
    80000518:	fe5210e3          	bne	tp,t0,800004f8 <test_27+0x8>
    8000051c:	800003b7          	lui	t2,0x80000
    80000520:	26731e63          	bne	t1,t2,8000079c <fail>

0000000080000524 <test_28>:
    80000524:	01c00193          	li	gp,28
    80000528:	00000213          	li	tp,0
    8000052c:	00100093          	li	ra,1
    80000530:	00700113          	li	sp,7
    80000534:	0020973b          	sllw	a4,ra,sp
    80000538:	00120213          	addi	tp,tp,1 # 1 <_start-0x7fffffff>
    8000053c:	00200293          	li	t0,2
    80000540:	fe5216e3          	bne	tp,t0,8000052c <test_28+0x8>
    80000544:	08000393          	li	t2,128
    80000548:	24771a63          	bne	a4,t2,8000079c <fail>

000000008000054c <test_29>:
    8000054c:	01d00193          	li	gp,29
    80000550:	00000213          	li	tp,0
    80000554:	00100093          	li	ra,1
    80000558:	00e00113          	li	sp,14
    8000055c:	00000013          	nop
    80000560:	0020973b          	sllw	a4,ra,sp
    80000564:	00120213          	addi	tp,tp,1 # 1 <_start-0x7fffffff>
    80000568:	00200293          	li	t0,2
    8000056c:	fe5214e3          	bne	tp,t0,80000554 <test_29+0x8>
    80000570:	000043b7          	lui	t2,0x4
    80000574:	22771463          	bne	a4,t2,8000079c <fail>

0000000080000578 <test_30>:
    80000578:	01e00193          	li	gp,30
    8000057c:	00000213          	li	tp,0
    80000580:	00100093          	li	ra,1
    80000584:	01f00113          	li	sp,31
    80000588:	00000013          	nop
    8000058c:	00000013          	nop
    80000590:	0020973b          	sllw	a4,ra,sp
    80000594:	00120213          	addi	tp,tp,1 # 1 <_start-0x7fffffff>
    80000598:	00200293          	li	t0,2
    8000059c:	fe5212e3          	bne	tp,t0,80000580 <test_30+0x8>
    800005a0:	800003b7          	lui	t2,0x80000
    800005a4:	1e771c63          	bne	a4,t2,8000079c <fail>

00000000800005a8 <test_31>:
    800005a8:	01f00193          	li	gp,31
    800005ac:	00000213          	li	tp,0
    800005b0:	00100093          	li	ra,1
    800005b4:	00000013          	nop
    800005b8:	00700113          	li	sp,7
    800005bc:	0020973b          	sllw	a4,ra,sp
    800005c0:	00120213          	addi	tp,tp,1 # 1 <_start-0x7fffffff>
    800005c4:	00200293          	li	t0,2
    800005c8:	fe5214e3          	bne	tp,t0,800005b0 <test_31+0x8>
    800005cc:	08000393          	li	t2,128
    800005d0:	1c771663          	bne	a4,t2,8000079c <fail>

00000000800005d4 <test_32>:
    800005d4:	02000193          	li	gp,32
    800005d8:	00000213          	li	tp,0
    800005dc:	00100093          	li	ra,1
    800005e0:	00000013          	nop
    800005e4:	00e00113          	li	sp,14
    800005e8:	00000013          	nop
    800005ec:	0020973b          	sllw	a4,ra,sp
    800005f0:	00120213          	addi	tp,tp,1 # 1 <_start-0x7fffffff>
    800005f4:	00200293          	li	t0,2
    800005f8:	fe5212e3          	bne	tp,t0,800005dc <test_32+0x8>
    800005fc:	000043b7          	lui	t2,0x4
    80000600:	18771e63          	bne	a4,t2,8000079c <fail>

0000000080000604 <test_33>:
    80000604:	02100193          	li	gp,33
    80000608:	00000213          	li	tp,0
    8000060c:	00100093          	li	ra,1
    80000610:	00000013          	nop
    80000614:	00000013          	nop
    80000618:	01f00113          	li	sp,31
    8000061c:	0020973b          	sllw	a4,ra,sp
    80000620:	00120213          	addi	tp,tp,1 # 1 <_start-0x7fffffff>
    80000624:	00200293          	li	t0,2
    80000628:	fe5212e3          	bne	tp,t0,8000060c <test_33+0x8>
    8000062c:	800003b7          	lui	t2,0x80000
    80000630:	16771663          	bne	a4,t2,8000079c <fail>

0000000080000634 <test_34>:
    80000634:	02200193          	li	gp,34
    80000638:	00000213          	li	tp,0
    8000063c:	00700113          	li	sp,7
    80000640:	00100093          	li	ra,1
    80000644:	0020973b          	sllw	a4,ra,sp
    80000648:	00120213          	addi	tp,tp,1 # 1 <_start-0x7fffffff>
    8000064c:	00200293          	li	t0,2
    80000650:	fe5216e3          	bne	tp,t0,8000063c <test_34+0x8>
    80000654:	08000393          	li	t2,128
    80000658:	14771263          	bne	a4,t2,8000079c <fail>

000000008000065c <test_35>:
    8000065c:	02300193          	li	gp,35
    80000660:	00000213          	li	tp,0
    80000664:	00e00113          	li	sp,14
    80000668:	00100093          	li	ra,1
    8000066c:	00000013          	nop
    80000670:	0020973b          	sllw	a4,ra,sp
    80000674:	00120213          	addi	tp,tp,1 # 1 <_start-0x7fffffff>
    80000678:	00200293          	li	t0,2
    8000067c:	fe5214e3          	bne	tp,t0,80000664 <test_35+0x8>
    80000680:	000043b7          	lui	t2,0x4
    80000684:	10771c63          	bne	a4,t2,8000079c <fail>

0000000080000688 <test_36>:
    80000688:	02400193          	li	gp,36
    8000068c:	00000213          	li	tp,0
    80000690:	01f00113          	li	sp,31
    80000694:	00100093          	li	ra,1
    80000698:	00000013          	nop
    8000069c:	00000013          	nop
    800006a0:	0020973b          	sllw	a4,ra,sp
    800006a4:	00120213          	addi	tp,tp,1 # 1 <_start-0x7fffffff>
    800006a8:	00200293          	li	t0,2
    800006ac:	fe5212e3          	bne	tp,t0,80000690 <test_36+0x8>
    800006b0:	800003b7          	lui	t2,0x80000
    800006b4:	0e771463          	bne	a4,t2,8000079c <fail>

00000000800006b8 <test_37>:
    800006b8:	02500193          	li	gp,37
    800006bc:	00000213          	li	tp,0
    800006c0:	00700113          	li	sp,7
    800006c4:	00000013          	nop
    800006c8:	00100093          	li	ra,1
    800006cc:	0020973b          	sllw	a4,ra,sp
    800006d0:	00120213          	addi	tp,tp,1 # 1 <_start-0x7fffffff>
    800006d4:	00200293          	li	t0,2
    800006d8:	fe5214e3          	bne	tp,t0,800006c0 <test_37+0x8>
    800006dc:	08000393          	li	t2,128
    800006e0:	0a771e63          	bne	a4,t2,8000079c <fail>

00000000800006e4 <test_38>:
    800006e4:	02600193          	li	gp,38
    800006e8:	00000213          	li	tp,0
    800006ec:	00e00113          	li	sp,14
    800006f0:	00000013          	nop
    800006f4:	00100093          	li	ra,1
    800006f8:	00000013          	nop
    800006fc:	0020973b          	sllw	a4,ra,sp
    80000700:	00120213          	addi	tp,tp,1 # 1 <_start-0x7fffffff>
    80000704:	00200293          	li	t0,2
    80000708:	fe5212e3          	bne	tp,t0,800006ec <test_38+0x8>
    8000070c:	000043b7          	lui	t2,0x4
    80000710:	08771663          	bne	a4,t2,8000079c <fail>

0000000080000714 <test_39>:
    80000714:	02700193          	li	gp,39
    80000718:	00000213          	li	tp,0
    8000071c:	01f00113          	li	sp,31
    80000720:	00000013          	nop
    80000724:	00000013          	nop
    80000728:	00100093          	li	ra,1
    8000072c:	0020973b          	sllw	a4,ra,sp
    80000730:	00120213          	addi	tp,tp,1 # 1 <_start-0x7fffffff>
    80000734:	00200293          	li	t0,2
    80000738:	fe5212e3          	bne	tp,t0,8000071c <test_39+0x8>
    8000073c:	800003b7          	lui	t2,0x80000
    80000740:	04771e63          	bne	a4,t2,8000079c <fail>

0000000080000744 <test_40>:
    80000744:	02800193          	li	gp,40
    80000748:	00f00093          	li	ra,15
    8000074c:	0010113b          	sllw	sp,zero,ra
    80000750:	00000393          	li	t2,0
    80000754:	04711463          	bne	sp,t2,8000079c <fail>

0000000080000758 <test_41>:
    80000758:	02900193          	li	gp,41
    8000075c:	02000093          	li	ra,32
    80000760:	0000913b          	sllw	sp,ra,zero
    80000764:	02000393          	li	t2,32
    80000768:	02711a63          	bne	sp,t2,8000079c <fail>

000000008000076c <test_42>:
    8000076c:	02a00193          	li	gp,42
    80000770:	000010bb          	sllw	ra,zero,zero
    80000774:	00000393          	li	t2,0
    80000778:	02709263          	bne	ra,t2,8000079c <fail>

000000008000077c <test_43>:
    8000077c:	02b00193          	li	gp,43
    80000780:	40000093          	li	ra,1024
    80000784:	00001137          	lui	sp,0x1
    80000788:	8001011b          	addiw	sp,sp,-2048 # 800 <_start-0x7ffff800>
    8000078c:	0020903b          	sllw	zero,ra,sp
    80000790:	00000393          	li	t2,0
    80000794:	00701463          	bne	zero,t2,8000079c <fail>
    80000798:	02301063          	bne	zero,gp,800007b8 <pass>

000000008000079c <fail>:
    8000079c:	0ff0000f          	fence
    800007a0:	00018063          	beqz	gp,800007a0 <fail+0x4>
    800007a4:	00119193          	slli	gp,gp,0x1
    800007a8:	0011e193          	ori	gp,gp,1
    800007ac:	05d00893          	li	a7,93
    800007b0:	00018513          	mv	a0,gp
    800007b4:	00000073          	ecall

00000000800007b8 <pass>:
    800007b8:	0ff0000f          	fence
    800007bc:	00100193          	li	gp,1
    800007c0:	05d00893          	li	a7,93
    800007c4:	00000513          	li	a0,0
    800007c8:	00000073          	ecall
    800007cc:	c0001073          	unimp
    800007d0:	0000                	.insn	2, 0x
    800007d2:	0000                	.insn	2, 0x
    800007d4:	0000                	.insn	2, 0x
    800007d6:	0000                	.insn	2, 0x
    800007d8:	0000                	.insn	2, 0x
    800007da:	0000                	.insn	2, 0x
    800007dc:	0000                	.insn	2, 0x
    800007de:	0000                	.insn	2, 0x
    800007e0:	0000                	.insn	2, 0x
    800007e2:	0000                	.insn	2, 0x
    800007e4:	0000                	.insn	2, 0x
    800007e6:	0000                	.insn	2, 0x
    800007e8:	0000                	.insn	2, 0x
    800007ea:	0000                	.insn	2, 0x
    800007ec:	0000                	.insn	2, 0x
    800007ee:	0000                	.insn	2, 0x
    800007f0:	0000                	.insn	2, 0x
    800007f2:	0000                	.insn	2, 0x
    800007f4:	0000                	.insn	2, 0x
    800007f6:	0000                	.insn	2, 0x
    800007f8:	0000                	.insn	2, 0x
    800007fa:	0000                	.insn	2, 0x
