
rv64uzbs-p-bclr:     file format elf64-littleriscv


Disassembly of section .text.init:

0000000080000000 <_start>:
    80000000:	0500006f          	j	80000050 <reset_vector>

0000000080000004 <trap_vector>:
    80000004:	34202f73          	csrr	t5,mcause
    80000008:	00800f93          	li	t6,8
    8000000c:	03ff0863          	beq	t5,t6,8000003c <write_tohost>
    80000010:	00900f93          	li	t6,9
    80000014:	03ff0463          	beq	t5,t6,8000003c <write_tohost>
    80000018:	00b00f93          	li	t6,11
    8000001c:	03ff0063          	beq	t5,t6,8000003c <write_tohost>
    80000020:	00000f13          	li	t5,0
    80000024:	000f0463          	beqz	t5,8000002c <trap_vector+0x28>
    80000028:	000f0067          	jr	t5
    8000002c:	34202f73          	csrr	t5,mcause
    80000030:	000f5463          	bgez	t5,80000038 <handle_exception>
    80000034:	0040006f          	j	80000038 <handle_exception>

0000000080000038 <handle_exception>:
    80000038:	5391e193          	ori	gp,gp,1337

000000008000003c <write_tohost>:
    8000003c:	00001f17          	auipc	t5,0x1
    80000040:	fc3f2223          	sw	gp,-60(t5) # 80001000 <tohost>
    80000044:	00001f17          	auipc	t5,0x1
    80000048:	fc0f2023          	sw	zero,-64(t5) # 80001004 <tohost+0x4>
    8000004c:	ff1ff06f          	j	8000003c <write_tohost>

0000000080000050 <reset_vector>:
    80000050:	00000093          	li	ra,0
    80000054:	00000113          	li	sp,0
    80000058:	00000193          	li	gp,0
    8000005c:	00000213          	li	tp,0
    80000060:	00000293          	li	t0,0
    80000064:	00000313          	li	t1,0
    80000068:	00000393          	li	t2,0
    8000006c:	00000413          	li	s0,0
    80000070:	00000493          	li	s1,0
    80000074:	00000513          	li	a0,0
    80000078:	00000593          	li	a1,0
    8000007c:	00000613          	li	a2,0
    80000080:	00000693          	li	a3,0
    80000084:	00000713          	li	a4,0
    80000088:	00000793          	li	a5,0
    8000008c:	00000813          	li	a6,0
    80000090:	00000893          	li	a7,0
    80000094:	00000913          	li	s2,0
    80000098:	00000993          	li	s3,0
    8000009c:	00000a13          	li	s4,0
    800000a0:	00000a93          	li	s5,0
    800000a4:	00000b13          	li	s6,0
    800000a8:	00000b93          	li	s7,0
    800000ac:	00000c13          	li	s8,0
    800000b0:	00000c93          	li	s9,0
    800000b4:	00000d13          	li	s10,0
    800000b8:	00000d93          	li	s11,0
    800000bc:	00000e13          	li	t3,0
    800000c0:	00000e93          	li	t4,0
    800000c4:	00000f13          	li	t5,0
    800000c8:	00000f93          	li	t6,0
    800000cc:	f1402573          	csrr	a0,mhartid
    800000d0:	00051063          	bnez	a0,800000d0 <reset_vector+0x80>
    800000d4:	00000297          	auipc	t0,0x0
    800000d8:	01028293          	addi	t0,t0,16 # 800000e4 <reset_vector+0x94>
    800000dc:	30529073          	csrw	mtvec,t0
    800000e0:	74445073          	csrwi	0x744,8
    800000e4:	00000297          	auipc	t0,0x0
    800000e8:	01028293          	addi	t0,t0,16 # 800000f4 <reset_vector+0xa4>
    800000ec:	30529073          	csrw	mtvec,t0
    800000f0:	18005073          	csrwi	satp,0
    800000f4:	00000297          	auipc	t0,0x0
    800000f8:	02428293          	addi	t0,t0,36 # 80000118 <reset_vector+0xc8>
    800000fc:	30529073          	csrw	mtvec,t0
    80000100:	0010029b          	addiw	t0,zero,1
    80000104:	03529293          	slli	t0,t0,0x35
    80000108:	fff28293          	addi	t0,t0,-1
    8000010c:	3b029073          	csrw	pmpaddr0,t0
    80000110:	01f00293          	li	t0,31
    80000114:	3a029073          	csrw	pmpcfg0,t0
    80000118:	30405073          	csrwi	mie,0
    8000011c:	00000297          	auipc	t0,0x0
    80000120:	01428293          	addi	t0,t0,20 # 80000130 <reset_vector+0xe0>
    80000124:	30529073          	csrw	mtvec,t0
    80000128:	30205073          	csrwi	medeleg,0
    8000012c:	30305073          	csrwi	mideleg,0
    80000130:	00000193          	li	gp,0
    80000134:	00000297          	auipc	t0,0x0
    80000138:	ed028293          	addi	t0,t0,-304 # 80000004 <trap_vector>
    8000013c:	30529073          	csrw	mtvec,t0
    80000140:	00100513          	li	a0,1
    80000144:	01f51513          	slli	a0,a0,0x1f
    80000148:	00055c63          	bgez	a0,80000160 <reset_vector+0x110>
    8000014c:	0ff0000f          	fence
    80000150:	00100193          	li	gp,1
    80000154:	05d00893          	li	a7,93
    80000158:	00000513          	li	a0,0
    8000015c:	00000073          	ecall
    80000160:	00000293          	li	t0,0
    80000164:	00028a63          	beqz	t0,80000178 <reset_vector+0x128>
    80000168:	10529073          	csrw	stvec,t0
    8000016c:	0000b2b7          	lui	t0,0xb
    80000170:	1092829b          	addiw	t0,t0,265 # b109 <_start-0x7fff4ef7>
    80000174:	30229073          	csrw	medeleg,t0
    80000178:	30005073          	csrwi	mstatus,0
    8000017c:	00000297          	auipc	t0,0x0
    80000180:	01428293          	addi	t0,t0,20 # 80000190 <test_2>
    80000184:	34129073          	csrw	mepc,t0
    80000188:	f1402573          	csrr	a0,mhartid
    8000018c:	30200073          	mret

0000000080000190 <test_2>:
    80000190:	00200193          	li	gp,2
    80000194:	000105b7          	lui	a1,0x10
    80000198:	f015859b          	addiw	a1,a1,-255 # ff01 <_start-0x7fff00ff>
    8000019c:	01059593          	slli	a1,a1,0x10
    800001a0:	f0058593          	addi	a1,a1,-256
    800001a4:	00000613          	li	a2,0
    800001a8:	48c59733          	bclr	a4,a1,a2
    800001ac:	000103b7          	lui	t2,0x10
    800001b0:	f013839b          	addiw	t2,t2,-255 # ff01 <_start-0x7fff00ff>
    800001b4:	01039393          	slli	t2,t2,0x10
    800001b8:	f0038393          	addi	t2,t2,-256
    800001bc:	74771263          	bne	a4,t2,80000900 <fail>

00000000800001c0 <test_3>:
    800001c0:	00300193          	li	gp,3
    800001c4:	00ff05b7          	lui	a1,0xff0
    800001c8:	0ff5859b          	addiw	a1,a1,255 # ff00ff <_start-0x7f00ff01>
    800001cc:	00100613          	li	a2,1
    800001d0:	48c59733          	bclr	a4,a1,a2
    800001d4:	00ff03b7          	lui	t2,0xff0
    800001d8:	0fd3839b          	addiw	t2,t2,253 # ff00fd <_start-0x7f00ff03>
    800001dc:	72771263          	bne	a4,t2,80000900 <fail>

00000000800001e0 <test_4>:
    800001e0:	00400193          	li	gp,4
    800001e4:	000105b7          	lui	a1,0x10
    800001e8:	f015859b          	addiw	a1,a1,-255 # ff01 <_start-0x7fff00ff>
    800001ec:	01059593          	slli	a1,a1,0x10
    800001f0:	f0058593          	addi	a1,a1,-256
    800001f4:	00800613          	li	a2,8
    800001f8:	48c59733          	bclr	a4,a1,a2
    800001fc:	000103b7          	lui	t2,0x10
    80000200:	f013839b          	addiw	t2,t2,-255 # ff01 <_start-0x7fff00ff>
    80000204:	01039393          	slli	t2,t2,0x10
    80000208:	e0038393          	addi	t2,t2,-512
    8000020c:	6e771a63          	bne	a4,t2,80000900 <fail>

0000000080000210 <test_5>:
    80000210:	00500193          	li	gp,5
    80000214:	0ff015b7          	lui	a1,0xff01
    80000218:	ff05859b          	addiw	a1,a1,-16 # ff00ff0 <_start-0x700ff010>
    8000021c:	00e00613          	li	a2,14
    80000220:	48c59733          	bclr	a4,a1,a2
    80000224:	0ff013b7          	lui	t2,0xff01
    80000228:	ff03839b          	addiw	t2,t2,-16 # ff00ff0 <_start-0x700ff010>
    8000022c:	6c771a63          	bne	a4,t2,80000900 <fail>

0000000080000230 <test_6>:
    80000230:	00600193          	li	gp,6
    80000234:	0ff015b7          	lui	a1,0xff01
    80000238:	ff05859b          	addiw	a1,a1,-16 # ff00ff0 <_start-0x700ff010>
    8000023c:	01b00613          	li	a2,27
    80000240:	48c59733          	bclr	a4,a1,a2
    80000244:	07f013b7          	lui	t2,0x7f01
    80000248:	ff03839b          	addiw	t2,t2,-16 # 7f00ff0 <_start-0x780ff010>
    8000024c:	6a771a63          	bne	a4,t2,80000900 <fail>

0000000080000250 <test_7>:
    80000250:	00700193          	li	gp,7
    80000254:	fff00593          	li	a1,-1
    80000258:	00000613          	li	a2,0
    8000025c:	48c59733          	bclr	a4,a1,a2
    80000260:	ffe00393          	li	t2,-2
    80000264:	68771e63          	bne	a4,t2,80000900 <fail>

0000000080000268 <test_8>:
    80000268:	00800193          	li	gp,8
    8000026c:	fff00593          	li	a1,-1
    80000270:	00100613          	li	a2,1
    80000274:	48c59733          	bclr	a4,a1,a2
    80000278:	ffd00393          	li	t2,-3
    8000027c:	68771263          	bne	a4,t2,80000900 <fail>

0000000080000280 <test_9>:
    80000280:	00900193          	li	gp,9
    80000284:	fff00593          	li	a1,-1
    80000288:	00700613          	li	a2,7
    8000028c:	48c59733          	bclr	a4,a1,a2
    80000290:	f7f00393          	li	t2,-129
    80000294:	66771663          	bne	a4,t2,80000900 <fail>

0000000080000298 <test_10>:
    80000298:	00a00193          	li	gp,10
    8000029c:	fff00593          	li	a1,-1
    800002a0:	00e00613          	li	a2,14
    800002a4:	48c59733          	bclr	a4,a1,a2
    800002a8:	ffffc3b7          	lui	t2,0xffffc
    800002ac:	fff3839b          	addiw	t2,t2,-1 # ffffffffffffbfff <_end+0xffffffff7fff9fff>
    800002b0:	64771863          	bne	a4,t2,80000900 <fail>

00000000800002b4 <test_11>:
    800002b4:	00b00193          	li	gp,11
    800002b8:	fff00593          	li	a1,-1
    800002bc:	01b00613          	li	a2,27
    800002c0:	48c59733          	bclr	a4,a1,a2
    800002c4:	f80003b7          	lui	t2,0xf8000
    800002c8:	fff3839b          	addiw	t2,t2,-1 # fffffffff7ffffff <_end+0xffffffff77ffdfff>
    800002cc:	62771a63          	bne	a4,t2,80000900 <fail>

00000000800002d0 <test_12>:
    800002d0:	00c00193          	li	gp,12
    800002d4:	212125b7          	lui	a1,0x21212
    800002d8:	1215859b          	addiw	a1,a1,289 # 21212121 <_start-0x5edededf>
    800002dc:	00000613          	li	a2,0
    800002e0:	48c59733          	bclr	a4,a1,a2
    800002e4:	212123b7          	lui	t2,0x21212
    800002e8:	1203839b          	addiw	t2,t2,288 # 21212120 <_start-0x5ededee0>
    800002ec:	60771a63          	bne	a4,t2,80000900 <fail>

00000000800002f0 <test_13>:
    800002f0:	00d00193          	li	gp,13
    800002f4:	212125b7          	lui	a1,0x21212
    800002f8:	1215859b          	addiw	a1,a1,289 # 21212121 <_start-0x5edededf>
    800002fc:	00100613          	li	a2,1
    80000300:	48c59733          	bclr	a4,a1,a2
    80000304:	212123b7          	lui	t2,0x21212
    80000308:	1213839b          	addiw	t2,t2,289 # 21212121 <_start-0x5edededf>
    8000030c:	5e771a63          	bne	a4,t2,80000900 <fail>

0000000080000310 <test_14>:
    80000310:	00e00193          	li	gp,14
    80000314:	212125b7          	lui	a1,0x21212
    80000318:	1215859b          	addiw	a1,a1,289 # 21212121 <_start-0x5edededf>
    8000031c:	00700613          	li	a2,7
    80000320:	48c59733          	bclr	a4,a1,a2
    80000324:	212123b7          	lui	t2,0x21212
    80000328:	1213839b          	addiw	t2,t2,289 # 21212121 <_start-0x5edededf>
    8000032c:	5c771a63          	bne	a4,t2,80000900 <fail>

0000000080000330 <test_15>:
    80000330:	00f00193          	li	gp,15
    80000334:	212125b7          	lui	a1,0x21212
    80000338:	1215859b          	addiw	a1,a1,289 # 21212121 <_start-0x5edededf>
    8000033c:	00d00613          	li	a2,13
    80000340:	48c59733          	bclr	a4,a1,a2
    80000344:	212103b7          	lui	t2,0x21210
    80000348:	1213839b          	addiw	t2,t2,289 # 21210121 <_start-0x5edefedf>
    8000034c:	5a771a63          	bne	a4,t2,80000900 <fail>

0000000080000350 <test_16>:
    80000350:	01000193          	li	gp,16
    80000354:	000115b7          	lui	a1,0x11
    80000358:	9095859b          	addiw	a1,a1,-1783 # 10909 <_start-0x7ffef6f7>
    8000035c:	00f59593          	slli	a1,a1,0xf
    80000360:	48458593          	addi	a1,a1,1156
    80000364:	01f00613          	li	a2,31
    80000368:	48c59733          	bclr	a4,a1,a2
    8000036c:	048483b7          	lui	t2,0x4848
    80000370:	4843839b          	addiw	t2,t2,1156 # 4848484 <_start-0x7b7b7b7c>
    80000374:	58771663          	bne	a4,t2,80000900 <fail>

0000000080000378 <test_17>:
    80000378:	01100193          	li	gp,17
    8000037c:	212125b7          	lui	a1,0x21212
    80000380:	1215859b          	addiw	a1,a1,289 # 21212121 <_start-0x5edededf>
    80000384:	fc000613          	li	a2,-64
    80000388:	48c59733          	bclr	a4,a1,a2
    8000038c:	212123b7          	lui	t2,0x21212
    80000390:	1203839b          	addiw	t2,t2,288 # 21212120 <_start-0x5ededee0>
    80000394:	56771663          	bne	a4,t2,80000900 <fail>

0000000080000398 <test_18>:
    80000398:	01200193          	li	gp,18
    8000039c:	212125b7          	lui	a1,0x21212
    800003a0:	1215859b          	addiw	a1,a1,289 # 21212121 <_start-0x5edededf>
    800003a4:	fc100613          	li	a2,-63
    800003a8:	48c59733          	bclr	a4,a1,a2
    800003ac:	212123b7          	lui	t2,0x21212
    800003b0:	1213839b          	addiw	t2,t2,289 # 21212121 <_start-0x5edededf>
    800003b4:	54771663          	bne	a4,t2,80000900 <fail>

00000000800003b8 <test_19>:
    800003b8:	01300193          	li	gp,19
    800003bc:	212125b7          	lui	a1,0x21212
    800003c0:	1215859b          	addiw	a1,a1,289 # 21212121 <_start-0x5edededf>
    800003c4:	fc700613          	li	a2,-57
    800003c8:	48c59733          	bclr	a4,a1,a2
    800003cc:	212123b7          	lui	t2,0x21212
    800003d0:	1213839b          	addiw	t2,t2,289 # 21212121 <_start-0x5edededf>
    800003d4:	52771663          	bne	a4,t2,80000900 <fail>

00000000800003d8 <test_20>:
    800003d8:	01400193          	li	gp,20
    800003dc:	000115b7          	lui	a1,0x11
    800003e0:	9095859b          	addiw	a1,a1,-1783 # 10909 <_start-0x7ffef6f7>
    800003e4:	00f59593          	slli	a1,a1,0xf
    800003e8:	48458593          	addi	a1,a1,1156
    800003ec:	fce00613          	li	a2,-50
    800003f0:	48c59733          	bclr	a4,a1,a2
    800003f4:	000113b7          	lui	t2,0x11
    800003f8:	9093839b          	addiw	t2,t2,-1783 # 10909 <_start-0x7ffef6f7>
    800003fc:	00f39393          	slli	t2,t2,0xf
    80000400:	48438393          	addi	t2,t2,1156
    80000404:	4e771e63          	bne	a4,t2,80000900 <fail>

0000000080000408 <test_21>:
    80000408:	01500193          	li	gp,21
    8000040c:	ff8915b7          	lui	a1,0xff891
    80000410:	9095859b          	addiw	a1,a1,-1783 # ffffffffff890909 <_end+0xffffffff7f88e909>
    80000414:	00e59593          	slli	a1,a1,0xe
    80000418:	21158593          	addi	a1,a1,529
    8000041c:	00c59593          	slli	a1,a1,0xc
    80000420:	90958593          	addi	a1,a1,-1783
    80000424:	00d59593          	slli	a1,a1,0xd
    80000428:	12158593          	addi	a1,a1,289
    8000042c:	fff00613          	li	a2,-1
    80000430:	48c59733          	bclr	a4,a1,a2
    80000434:	008913b7          	lui	t2,0x891
    80000438:	9093839b          	addiw	t2,t2,-1783 # 890909 <_start-0x7f76f6f7>
    8000043c:	00e39393          	slli	t2,t2,0xe
    80000440:	21138393          	addi	t2,t2,529
    80000444:	00c39393          	slli	t2,t2,0xc
    80000448:	90938393          	addi	t2,t2,-1783
    8000044c:	00d39393          	slli	t2,t2,0xd
    80000450:	12138393          	addi	t2,t2,289
    80000454:	4a771663          	bne	a4,t2,80000900 <fail>

0000000080000458 <test_50>:
    80000458:	03200193          	li	gp,50
    8000045c:	00100593          	li	a1,1
    80000460:	03f00613          	li	a2,63
    80000464:	48c59733          	bclr	a4,a1,a2
    80000468:	00100393          	li	t2,1
    8000046c:	48771a63          	bne	a4,t2,80000900 <fail>

0000000080000470 <test_51>:
    80000470:	03300193          	li	gp,51
    80000474:	fff00593          	li	a1,-1
    80000478:	02700613          	li	a2,39
    8000047c:	48c59733          	bclr	a4,a1,a2
    80000480:	fff0039b          	addiw	t2,zero,-1
    80000484:	02739393          	slli	t2,t2,0x27
    80000488:	fff38393          	addi	t2,t2,-1
    8000048c:	46771a63          	bne	a4,t2,80000900 <fail>

0000000080000490 <test_52>:
    80000490:	03400193          	li	gp,52
    80000494:	fff0059b          	addiw	a1,zero,-1
    80000498:	02059593          	slli	a1,a1,0x20
    8000049c:	02b00613          	li	a2,43
    800004a0:	48c59733          	bclr	a4,a1,a2
    800004a4:	fffff3b7          	lui	t2,0xfffff
    800004a8:	7ff3839b          	addiw	t2,t2,2047 # fffffffffffff7ff <_end+0xffffffff7fffd7ff>
    800004ac:	02039393          	slli	t2,t2,0x20
    800004b0:	44771863          	bne	a4,t2,80000900 <fail>

00000000800004b4 <test_22>:
    800004b4:	01600193          	li	gp,22
    800004b8:	00100593          	li	a1,1
    800004bc:	00700613          	li	a2,7
    800004c0:	48c595b3          	bclr	a1,a1,a2
    800004c4:	00100393          	li	t2,1
    800004c8:	42759c63          	bne	a1,t2,80000900 <fail>

00000000800004cc <test_23>:
    800004cc:	01700193          	li	gp,23
    800004d0:	000055b7          	lui	a1,0x5
    800004d4:	5515859b          	addiw	a1,a1,1361 # 5551 <_start-0x7fffaaaf>
    800004d8:	00e00613          	li	a2,14
    800004dc:	48c59633          	bclr	a2,a1,a2
    800004e0:	000013b7          	lui	t2,0x1
    800004e4:	5513839b          	addiw	t2,t2,1361 # 1551 <_start-0x7fffeaaf>
    800004e8:	40761c63          	bne	a2,t2,80000900 <fail>

00000000800004ec <test_24>:
    800004ec:	01800193          	li	gp,24
    800004f0:	00300593          	li	a1,3
    800004f4:	48b595b3          	bclr	a1,a1,a1
    800004f8:	00300393          	li	t2,3
    800004fc:	40759263          	bne	a1,t2,80000900 <fail>

0000000080000500 <test_25>:
    80000500:	01900193          	li	gp,25
    80000504:	00000213          	li	tp,0
    80000508:	000100b7          	lui	ra,0x10
    8000050c:	f010809b          	addiw	ra,ra,-255 # ff01 <_start-0x7fff00ff>
    80000510:	01009093          	slli	ra,ra,0x10
    80000514:	f0008093          	addi	ra,ra,-256
    80000518:	00000113          	li	sp,0
    8000051c:	48209733          	bclr	a4,ra,sp
    80000520:	00070313          	mv	t1,a4
    80000524:	00120213          	addi	tp,tp,1 # 1 <_start-0x7fffffff>
    80000528:	00200293          	li	t0,2
    8000052c:	fc521ee3          	bne	tp,t0,80000508 <test_25+0x8>
    80000530:	000103b7          	lui	t2,0x10
    80000534:	f013839b          	addiw	t2,t2,-255 # ff01 <_start-0x7fff00ff>
    80000538:	01039393          	slli	t2,t2,0x10
    8000053c:	f0038393          	addi	t2,t2,-256
    80000540:	3c731063          	bne	t1,t2,80000900 <fail>

0000000080000544 <test_26>:
    80000544:	01a00193          	li	gp,26
    80000548:	00000213          	li	tp,0
    8000054c:	00ff00b7          	lui	ra,0xff0
    80000550:	0ff0809b          	addiw	ra,ra,255 # ff00ff <_start-0x7f00ff01>
    80000554:	00100113          	li	sp,1
    80000558:	48209733          	bclr	a4,ra,sp
    8000055c:	00000013          	nop
    80000560:	00070313          	mv	t1,a4
    80000564:	00120213          	addi	tp,tp,1 # 1 <_start-0x7fffffff>
    80000568:	00200293          	li	t0,2
    8000056c:	fe5210e3          	bne	tp,t0,8000054c <test_26+0x8>
    80000570:	00ff03b7          	lui	t2,0xff0
    80000574:	0fd3839b          	addiw	t2,t2,253 # ff00fd <_start-0x7f00ff03>
    80000578:	38731463          	bne	t1,t2,80000900 <fail>

000000008000057c <test_27>:
    8000057c:	01b00193          	li	gp,27
    80000580:	00000213          	li	tp,0
    80000584:	000100b7          	lui	ra,0x10
    80000588:	f010809b          	addiw	ra,ra,-255 # ff01 <_start-0x7fff00ff>
    8000058c:	01009093          	slli	ra,ra,0x10
    80000590:	f0008093          	addi	ra,ra,-256
    80000594:	00800113          	li	sp,8
    80000598:	48209733          	bclr	a4,ra,sp
    8000059c:	00000013          	nop
    800005a0:	00000013          	nop
    800005a4:	00070313          	mv	t1,a4
    800005a8:	00120213          	addi	tp,tp,1 # 1 <_start-0x7fffffff>
    800005ac:	00200293          	li	t0,2
    800005b0:	fc521ae3          	bne	tp,t0,80000584 <test_27+0x8>
    800005b4:	000103b7          	lui	t2,0x10
    800005b8:	f013839b          	addiw	t2,t2,-255 # ff01 <_start-0x7fff00ff>
    800005bc:	01039393          	slli	t2,t2,0x10
    800005c0:	e0038393          	addi	t2,t2,-512
    800005c4:	32731e63          	bne	t1,t2,80000900 <fail>

00000000800005c8 <test_28>:
    800005c8:	01c00193          	li	gp,28
    800005cc:	00000213          	li	tp,0
    800005d0:	000100b7          	lui	ra,0x10
    800005d4:	f010809b          	addiw	ra,ra,-255 # ff01 <_start-0x7fff00ff>
    800005d8:	01009093          	slli	ra,ra,0x10
    800005dc:	f0008093          	addi	ra,ra,-256
    800005e0:	00000113          	li	sp,0
    800005e4:	48209733          	bclr	a4,ra,sp
    800005e8:	00120213          	addi	tp,tp,1 # 1 <_start-0x7fffffff>
    800005ec:	00200293          	li	t0,2
    800005f0:	fe5210e3          	bne	tp,t0,800005d0 <test_28+0x8>
    800005f4:	000103b7          	lui	t2,0x10
    800005f8:	f013839b          	addiw	t2,t2,-255 # ff01 <_start-0x7fff00ff>
    800005fc:	01039393          	slli	t2,t2,0x10
    80000600:	f0038393          	addi	t2,t2,-256
    80000604:	2e771e63          	bne	a4,t2,80000900 <fail>

0000000080000608 <test_29>:
    80000608:	01d00193          	li	gp,29
    8000060c:	00000213          	li	tp,0
    80000610:	00ff00b7          	lui	ra,0xff0
    80000614:	0ff0809b          	addiw	ra,ra,255 # ff00ff <_start-0x7f00ff01>
    80000618:	00100113          	li	sp,1
    8000061c:	00000013          	nop
    80000620:	48209733          	bclr	a4,ra,sp
    80000624:	00120213          	addi	tp,tp,1 # 1 <_start-0x7fffffff>
    80000628:	00200293          	li	t0,2
    8000062c:	fe5212e3          	bne	tp,t0,80000610 <test_29+0x8>
    80000630:	00ff03b7          	lui	t2,0xff0
    80000634:	0fd3839b          	addiw	t2,t2,253 # ff00fd <_start-0x7f00ff03>
    80000638:	2c771463          	bne	a4,t2,80000900 <fail>

000000008000063c <test_30>:
    8000063c:	01e00193          	li	gp,30
    80000640:	00000213          	li	tp,0
    80000644:	000100b7          	lui	ra,0x10
    80000648:	f010809b          	addiw	ra,ra,-255 # ff01 <_start-0x7fff00ff>
    8000064c:	01009093          	slli	ra,ra,0x10
    80000650:	f0008093          	addi	ra,ra,-256
    80000654:	00800113          	li	sp,8
    80000658:	00000013          	nop
    8000065c:	00000013          	nop
    80000660:	48209733          	bclr	a4,ra,sp
    80000664:	00120213          	addi	tp,tp,1 # 1 <_start-0x7fffffff>
    80000668:	00200293          	li	t0,2
    8000066c:	fc521ce3          	bne	tp,t0,80000644 <test_30+0x8>
    80000670:	000103b7          	lui	t2,0x10
    80000674:	f013839b          	addiw	t2,t2,-255 # ff01 <_start-0x7fff00ff>
    80000678:	01039393          	slli	t2,t2,0x10
    8000067c:	e0038393          	addi	t2,t2,-512
    80000680:	28771063          	bne	a4,t2,80000900 <fail>

0000000080000684 <test_31>:
    80000684:	01f00193          	li	gp,31
    80000688:	00000213          	li	tp,0
    8000068c:	000100b7          	lui	ra,0x10
    80000690:	f010809b          	addiw	ra,ra,-255 # ff01 <_start-0x7fff00ff>
    80000694:	01009093          	slli	ra,ra,0x10
    80000698:	f0008093          	addi	ra,ra,-256
    8000069c:	00000013          	nop
    800006a0:	00000113          	li	sp,0
    800006a4:	48209733          	bclr	a4,ra,sp
    800006a8:	00120213          	addi	tp,tp,1 # 1 <_start-0x7fffffff>
    800006ac:	00200293          	li	t0,2
    800006b0:	fc521ee3          	bne	tp,t0,8000068c <test_31+0x8>
    800006b4:	000103b7          	lui	t2,0x10
    800006b8:	f013839b          	addiw	t2,t2,-255 # ff01 <_start-0x7fff00ff>
    800006bc:	01039393          	slli	t2,t2,0x10
    800006c0:	f0038393          	addi	t2,t2,-256
    800006c4:	22771e63          	bne	a4,t2,80000900 <fail>

00000000800006c8 <test_32>:
    800006c8:	02000193          	li	gp,32
    800006cc:	00000213          	li	tp,0
    800006d0:	00ff00b7          	lui	ra,0xff0
    800006d4:	0ff0809b          	addiw	ra,ra,255 # ff00ff <_start-0x7f00ff01>
    800006d8:	00000013          	nop
    800006dc:	00100113          	li	sp,1
    800006e0:	00000013          	nop
    800006e4:	48209733          	bclr	a4,ra,sp
    800006e8:	00120213          	addi	tp,tp,1 # 1 <_start-0x7fffffff>
    800006ec:	00200293          	li	t0,2
    800006f0:	fe5210e3          	bne	tp,t0,800006d0 <test_32+0x8>
    800006f4:	00ff03b7          	lui	t2,0xff0
    800006f8:	0fd3839b          	addiw	t2,t2,253 # ff00fd <_start-0x7f00ff03>
    800006fc:	20771263          	bne	a4,t2,80000900 <fail>

0000000080000700 <test_33>:
    80000700:	02100193          	li	gp,33
    80000704:	00000213          	li	tp,0
    80000708:	000100b7          	lui	ra,0x10
    8000070c:	f010809b          	addiw	ra,ra,-255 # ff01 <_start-0x7fff00ff>
    80000710:	01009093          	slli	ra,ra,0x10
    80000714:	f0008093          	addi	ra,ra,-256
    80000718:	00000013          	nop
    8000071c:	00000013          	nop
    80000720:	00800113          	li	sp,8
    80000724:	48209733          	bclr	a4,ra,sp
    80000728:	00120213          	addi	tp,tp,1 # 1 <_start-0x7fffffff>
    8000072c:	00200293          	li	t0,2
    80000730:	fc521ce3          	bne	tp,t0,80000708 <test_33+0x8>
    80000734:	000103b7          	lui	t2,0x10
    80000738:	f013839b          	addiw	t2,t2,-255 # ff01 <_start-0x7fff00ff>
    8000073c:	01039393          	slli	t2,t2,0x10
    80000740:	e0038393          	addi	t2,t2,-512
    80000744:	1a771e63          	bne	a4,t2,80000900 <fail>

0000000080000748 <test_34>:
    80000748:	02200193          	li	gp,34
    8000074c:	00000213          	li	tp,0
    80000750:	00800113          	li	sp,8
    80000754:	000100b7          	lui	ra,0x10
    80000758:	f010809b          	addiw	ra,ra,-255 # ff01 <_start-0x7fff00ff>
    8000075c:	01009093          	slli	ra,ra,0x10
    80000760:	f0008093          	addi	ra,ra,-256
    80000764:	48209733          	bclr	a4,ra,sp
    80000768:	00120213          	addi	tp,tp,1 # 1 <_start-0x7fffffff>
    8000076c:	00200293          	li	t0,2
    80000770:	fe5210e3          	bne	tp,t0,80000750 <test_34+0x8>
    80000774:	000103b7          	lui	t2,0x10
    80000778:	f013839b          	addiw	t2,t2,-255 # ff01 <_start-0x7fff00ff>
    8000077c:	01039393          	slli	t2,t2,0x10
    80000780:	e0038393          	addi	t2,t2,-512
    80000784:	16771e63          	bne	a4,t2,80000900 <fail>

0000000080000788 <test_35>:
    80000788:	02300193          	li	gp,35
    8000078c:	00000213          	li	tp,0
    80000790:	00e00113          	li	sp,14
    80000794:	0ff010b7          	lui	ra,0xff01
    80000798:	ff00809b          	addiw	ra,ra,-16 # ff00ff0 <_start-0x700ff010>
    8000079c:	00000013          	nop
    800007a0:	48209733          	bclr	a4,ra,sp
    800007a4:	00120213          	addi	tp,tp,1 # 1 <_start-0x7fffffff>
    800007a8:	00200293          	li	t0,2
    800007ac:	fe5212e3          	bne	tp,t0,80000790 <test_35+0x8>
    800007b0:	0ff013b7          	lui	t2,0xff01
    800007b4:	ff03839b          	addiw	t2,t2,-16 # ff00ff0 <_start-0x700ff010>
    800007b8:	14771463          	bne	a4,t2,80000900 <fail>

00000000800007bc <test_36>:
    800007bc:	02400193          	li	gp,36
    800007c0:	00000213          	li	tp,0
    800007c4:	01b00113          	li	sp,27
    800007c8:	0ff010b7          	lui	ra,0xff01
    800007cc:	ff00809b          	addiw	ra,ra,-16 # ff00ff0 <_start-0x700ff010>
    800007d0:	00000013          	nop
    800007d4:	00000013          	nop
    800007d8:	48209733          	bclr	a4,ra,sp
    800007dc:	00120213          	addi	tp,tp,1 # 1 <_start-0x7fffffff>
    800007e0:	00200293          	li	t0,2
    800007e4:	fe5210e3          	bne	tp,t0,800007c4 <test_36+0x8>
    800007e8:	07f013b7          	lui	t2,0x7f01
    800007ec:	ff03839b          	addiw	t2,t2,-16 # 7f00ff0 <_start-0x780ff010>
    800007f0:	10771863          	bne	a4,t2,80000900 <fail>

00000000800007f4 <test_37>:
    800007f4:	02500193          	li	gp,37
    800007f8:	00000213          	li	tp,0
    800007fc:	00800113          	li	sp,8
    80000800:	00000013          	nop
    80000804:	000100b7          	lui	ra,0x10
    80000808:	f010809b          	addiw	ra,ra,-255 # ff01 <_start-0x7fff00ff>
    8000080c:	01009093          	slli	ra,ra,0x10
    80000810:	f0008093          	addi	ra,ra,-256
    80000814:	48209733          	bclr	a4,ra,sp
    80000818:	00120213          	addi	tp,tp,1 # 1 <_start-0x7fffffff>
    8000081c:	00200293          	li	t0,2
    80000820:	fc521ee3          	bne	tp,t0,800007fc <test_37+0x8>
    80000824:	000103b7          	lui	t2,0x10
    80000828:	f013839b          	addiw	t2,t2,-255 # ff01 <_start-0x7fff00ff>
    8000082c:	01039393          	slli	t2,t2,0x10
    80000830:	e0038393          	addi	t2,t2,-512
    80000834:	0c771663          	bne	a4,t2,80000900 <fail>

0000000080000838 <test_38>:
    80000838:	02600193          	li	gp,38
    8000083c:	00000213          	li	tp,0
    80000840:	00e00113          	li	sp,14
    80000844:	00000013          	nop
    80000848:	0ff010b7          	lui	ra,0xff01
    8000084c:	ff00809b          	addiw	ra,ra,-16 # ff00ff0 <_start-0x700ff010>
    80000850:	00000013          	nop
    80000854:	48209733          	bclr	a4,ra,sp
    80000858:	00120213          	addi	tp,tp,1 # 1 <_start-0x7fffffff>
    8000085c:	00200293          	li	t0,2
    80000860:	fe5210e3          	bne	tp,t0,80000840 <test_38+0x8>
    80000864:	0ff013b7          	lui	t2,0xff01
    80000868:	ff03839b          	addiw	t2,t2,-16 # ff00ff0 <_start-0x700ff010>
    8000086c:	08771a63          	bne	a4,t2,80000900 <fail>

0000000080000870 <test_39>:
    80000870:	02700193          	li	gp,39
    80000874:	00000213          	li	tp,0
    80000878:	01b00113          	li	sp,27
    8000087c:	00000013          	nop
    80000880:	00000013          	nop
    80000884:	0ff010b7          	lui	ra,0xff01
    80000888:	ff00809b          	addiw	ra,ra,-16 # ff00ff0 <_start-0x700ff010>
    8000088c:	48209733          	bclr	a4,ra,sp
    80000890:	00120213          	addi	tp,tp,1 # 1 <_start-0x7fffffff>
    80000894:	00200293          	li	t0,2
    80000898:	fe5210e3          	bne	tp,t0,80000878 <test_39+0x8>
    8000089c:	07f013b7          	lui	t2,0x7f01
    800008a0:	ff03839b          	addiw	t2,t2,-16 # 7f00ff0 <_start-0x780ff010>
    800008a4:	04771e63          	bne	a4,t2,80000900 <fail>

00000000800008a8 <test_40>:
    800008a8:	02800193          	li	gp,40
    800008ac:	00f00093          	li	ra,15
    800008b0:	48101133          	bclr	sp,zero,ra
    800008b4:	00000393          	li	t2,0
    800008b8:	04711463          	bne	sp,t2,80000900 <fail>

00000000800008bc <test_41>:
    800008bc:	02900193          	li	gp,41
    800008c0:	02000093          	li	ra,32
    800008c4:	48009133          	bclr	sp,ra,zero
    800008c8:	02000393          	li	t2,32
    800008cc:	02711a63          	bne	sp,t2,80000900 <fail>

00000000800008d0 <test_42>:
    800008d0:	02a00193          	li	gp,42
    800008d4:	480010b3          	bclr	ra,zero,zero
    800008d8:	00000393          	li	t2,0
    800008dc:	02709263          	bne	ra,t2,80000900 <fail>

00000000800008e0 <test_43>:
    800008e0:	02b00193          	li	gp,43
    800008e4:	40000093          	li	ra,1024
    800008e8:	00001137          	lui	sp,0x1
    800008ec:	8001011b          	addiw	sp,sp,-2048 # 800 <_start-0x7ffff800>
    800008f0:	48209033          	bclr	zero,ra,sp
    800008f4:	00000393          	li	t2,0
    800008f8:	00701463          	bne	zero,t2,80000900 <fail>
    800008fc:	02301063          	bne	zero,gp,8000091c <pass>

0000000080000900 <fail>:
    80000900:	0ff0000f          	fence
    80000904:	00018063          	beqz	gp,80000904 <fail+0x4>
    80000908:	00119193          	slli	gp,gp,0x1
    8000090c:	0011e193          	ori	gp,gp,1
    80000910:	05d00893          	li	a7,93
    80000914:	00018513          	mv	a0,gp
    80000918:	00000073          	ecall

000000008000091c <pass>:
    8000091c:	0ff0000f          	fence
    80000920:	00100193          	li	gp,1
    80000924:	05d00893          	li	a7,93
    80000928:	00000513          	li	a0,0
    8000092c:	00000073          	ecall
    80000930:	c0001073          	unimp
    80000934:	0000                	.insn	2, 0x
    80000936:	0000                	.insn	2, 0x
    80000938:	0000                	.insn	2, 0x
    8000093a:	0000                	.insn	2, 0x
