
rv64uzfh-p-fmin:     file format elf64-littleriscv


Disassembly of section .text.init:

0000000080000000 <_start>:
    80000000:	0500006f          	j	80000050 <reset_vector>

0000000080000004 <trap_vector>:
    80000004:	34202f73          	csrr	t5,mcause
    80000008:	00800f93          	li	t6,8
    8000000c:	03ff0863          	beq	t5,t6,8000003c <write_tohost>
    80000010:	00900f93          	li	t6,9
    80000014:	03ff0463          	beq	t5,t6,8000003c <write_tohost>
    80000018:	00b00f93          	li	t6,11
    8000001c:	03ff0063          	beq	t5,t6,8000003c <write_tohost>
    80000020:	00000f13          	li	t5,0
    80000024:	000f0463          	beqz	t5,8000002c <trap_vector+0x28>
    80000028:	000f0067          	jr	t5
    8000002c:	34202f73          	csrr	t5,mcause
    80000030:	000f5463          	bgez	t5,80000038 <handle_exception>
    80000034:	0040006f          	j	80000038 <handle_exception>

0000000080000038 <handle_exception>:
    80000038:	5391e193          	ori	gp,gp,1337

000000008000003c <write_tohost>:
    8000003c:	00001f17          	auipc	t5,0x1
    80000040:	fc3f2223          	sw	gp,-60(t5) # 80001000 <tohost>
    80000044:	00001f17          	auipc	t5,0x1
    80000048:	fc0f2023          	sw	zero,-64(t5) # 80001004 <tohost+0x4>
    8000004c:	ff1ff06f          	j	8000003c <write_tohost>

0000000080000050 <reset_vector>:
    80000050:	00000093          	li	ra,0
    80000054:	00000113          	li	sp,0
    80000058:	00000193          	li	gp,0
    8000005c:	00000213          	li	tp,0
    80000060:	00000293          	li	t0,0
    80000064:	00000313          	li	t1,0
    80000068:	00000393          	li	t2,0
    8000006c:	00000413          	li	s0,0
    80000070:	00000493          	li	s1,0
    80000074:	00000513          	li	a0,0
    80000078:	00000593          	li	a1,0
    8000007c:	00000613          	li	a2,0
    80000080:	00000693          	li	a3,0
    80000084:	00000713          	li	a4,0
    80000088:	00000793          	li	a5,0
    8000008c:	00000813          	li	a6,0
    80000090:	00000893          	li	a7,0
    80000094:	00000913          	li	s2,0
    80000098:	00000993          	li	s3,0
    8000009c:	00000a13          	li	s4,0
    800000a0:	00000a93          	li	s5,0
    800000a4:	00000b13          	li	s6,0
    800000a8:	00000b93          	li	s7,0
    800000ac:	00000c13          	li	s8,0
    800000b0:	00000c93          	li	s9,0
    800000b4:	00000d13          	li	s10,0
    800000b8:	00000d93          	li	s11,0
    800000bc:	00000e13          	li	t3,0
    800000c0:	00000e93          	li	t4,0
    800000c4:	00000f13          	li	t5,0
    800000c8:	00000f93          	li	t6,0
    800000cc:	f1402573          	csrr	a0,mhartid
    800000d0:	00051063          	bnez	a0,800000d0 <reset_vector+0x80>
    800000d4:	00000297          	auipc	t0,0x0
    800000d8:	01028293          	addi	t0,t0,16 # 800000e4 <reset_vector+0x94>
    800000dc:	30529073          	csrw	mtvec,t0
    800000e0:	74445073          	csrwi	0x744,8
    800000e4:	00000297          	auipc	t0,0x0
    800000e8:	01028293          	addi	t0,t0,16 # 800000f4 <reset_vector+0xa4>
    800000ec:	30529073          	csrw	mtvec,t0
    800000f0:	18005073          	csrwi	satp,0
    800000f4:	00000297          	auipc	t0,0x0
    800000f8:	02428293          	addi	t0,t0,36 # 80000118 <reset_vector+0xc8>
    800000fc:	30529073          	csrw	mtvec,t0
    80000100:	0010029b          	addiw	t0,zero,1
    80000104:	03529293          	slli	t0,t0,0x35
    80000108:	fff28293          	addi	t0,t0,-1
    8000010c:	3b029073          	csrw	pmpaddr0,t0
    80000110:	01f00293          	li	t0,31
    80000114:	3a029073          	csrw	pmpcfg0,t0
    80000118:	30405073          	csrwi	mie,0
    8000011c:	00000297          	auipc	t0,0x0
    80000120:	01428293          	addi	t0,t0,20 # 80000130 <reset_vector+0xe0>
    80000124:	30529073          	csrw	mtvec,t0
    80000128:	30205073          	csrwi	medeleg,0
    8000012c:	30305073          	csrwi	mideleg,0
    80000130:	00000193          	li	gp,0
    80000134:	00000297          	auipc	t0,0x0
    80000138:	ed028293          	addi	t0,t0,-304 # 80000004 <trap_vector>
    8000013c:	30529073          	csrw	mtvec,t0
    80000140:	00100513          	li	a0,1
    80000144:	01f51513          	slli	a0,a0,0x1f
    80000148:	00055c63          	bgez	a0,80000160 <reset_vector+0x110>
    8000014c:	0ff0000f          	fence
    80000150:	00100193          	li	gp,1
    80000154:	05d00893          	li	a7,93
    80000158:	00000513          	li	a0,0
    8000015c:	00000073          	ecall
    80000160:	00000293          	li	t0,0
    80000164:	00028a63          	beqz	t0,80000178 <reset_vector+0x128>
    80000168:	10529073          	csrw	stvec,t0
    8000016c:	0000b2b7          	lui	t0,0xb
    80000170:	1092829b          	addiw	t0,t0,265 # b109 <_start-0x7fff4ef7>
    80000174:	30229073          	csrw	medeleg,t0
    80000178:	30005073          	csrwi	mstatus,0
    8000017c:	00002537          	lui	a0,0x2
    80000180:	30052073          	csrs	mstatus,a0
    80000184:	00305073          	csrwi	fcsr,0
    80000188:	00000297          	auipc	t0,0x0
    8000018c:	01428293          	addi	t0,t0,20 # 8000019c <test_2>
    80000190:	34129073          	csrw	mepc,t0
    80000194:	f1402573          	csrr	a0,mhartid
    80000198:	30200073          	mret

000000008000019c <test_2>:
    8000019c:	00200193          	li	gp,2
    800001a0:	00002517          	auipc	a0,0x2
    800001a4:	e6050513          	addi	a0,a0,-416 # 80002000 <test_2_data>
    800001a8:	00051507          	flh	fa0,0(a0)
    800001ac:	00251587          	flh	fa1,2(a0)
    800001b0:	00451607          	flh	fa2,4(a0)
    800001b4:	00651683          	lh	a3,6(a0)
    800001b8:	2cb506d3          	fmin.h	fa3,fa0,fa1
    800001bc:	e4068553          	fmv.x.h	a0,fa3
    800001c0:	001015f3          	fsflags	a1,zero
    800001c4:	00000613          	li	a2,0
    800001c8:	38d51063          	bne	a0,a3,80000548 <fail>
    800001cc:	36c59e63          	bne	a1,a2,80000548 <fail>

00000000800001d0 <test_3>:
    800001d0:	00300193          	li	gp,3
    800001d4:	00002517          	auipc	a0,0x2
    800001d8:	e3450513          	addi	a0,a0,-460 # 80002008 <test_3_data>
    800001dc:	00051507          	flh	fa0,0(a0)
    800001e0:	00251587          	flh	fa1,2(a0)
    800001e4:	00451607          	flh	fa2,4(a0)
    800001e8:	00651683          	lh	a3,6(a0)
    800001ec:	2cb506d3          	fmin.h	fa3,fa0,fa1
    800001f0:	e4068553          	fmv.x.h	a0,fa3
    800001f4:	001015f3          	fsflags	a1,zero
    800001f8:	00000613          	li	a2,0
    800001fc:	34d51663          	bne	a0,a3,80000548 <fail>
    80000200:	34c59463          	bne	a1,a2,80000548 <fail>

0000000080000204 <test_4>:
    80000204:	00400193          	li	gp,4
    80000208:	00002517          	auipc	a0,0x2
    8000020c:	e0850513          	addi	a0,a0,-504 # 80002010 <test_4_data>
    80000210:	00051507          	flh	fa0,0(a0)
    80000214:	00251587          	flh	fa1,2(a0)
    80000218:	00451607          	flh	fa2,4(a0)
    8000021c:	00651683          	lh	a3,6(a0)
    80000220:	2cb506d3          	fmin.h	fa3,fa0,fa1
    80000224:	e4068553          	fmv.x.h	a0,fa3
    80000228:	001015f3          	fsflags	a1,zero
    8000022c:	00000613          	li	a2,0
    80000230:	30d51c63          	bne	a0,a3,80000548 <fail>
    80000234:	30c59a63          	bne	a1,a2,80000548 <fail>

0000000080000238 <test_5>:
    80000238:	00500193          	li	gp,5
    8000023c:	00002517          	auipc	a0,0x2
    80000240:	ddc50513          	addi	a0,a0,-548 # 80002018 <test_5_data>
    80000244:	00051507          	flh	fa0,0(a0)
    80000248:	00251587          	flh	fa1,2(a0)
    8000024c:	00451607          	flh	fa2,4(a0)
    80000250:	00651683          	lh	a3,6(a0)
    80000254:	2cb506d3          	fmin.h	fa3,fa0,fa1
    80000258:	e4068553          	fmv.x.h	a0,fa3
    8000025c:	001015f3          	fsflags	a1,zero
    80000260:	00000613          	li	a2,0
    80000264:	2ed51263          	bne	a0,a3,80000548 <fail>
    80000268:	2ec59063          	bne	a1,a2,80000548 <fail>

000000008000026c <test_6>:
    8000026c:	00600193          	li	gp,6
    80000270:	00002517          	auipc	a0,0x2
    80000274:	db050513          	addi	a0,a0,-592 # 80002020 <test_6_data>
    80000278:	00051507          	flh	fa0,0(a0)
    8000027c:	00251587          	flh	fa1,2(a0)
    80000280:	00451607          	flh	fa2,4(a0)
    80000284:	00651683          	lh	a3,6(a0)
    80000288:	2cb506d3          	fmin.h	fa3,fa0,fa1
    8000028c:	e4068553          	fmv.x.h	a0,fa3
    80000290:	001015f3          	fsflags	a1,zero
    80000294:	00000613          	li	a2,0
    80000298:	2ad51863          	bne	a0,a3,80000548 <fail>
    8000029c:	2ac59663          	bne	a1,a2,80000548 <fail>

00000000800002a0 <test_7>:
    800002a0:	00700193          	li	gp,7
    800002a4:	00002517          	auipc	a0,0x2
    800002a8:	d8450513          	addi	a0,a0,-636 # 80002028 <test_7_data>
    800002ac:	00051507          	flh	fa0,0(a0)
    800002b0:	00251587          	flh	fa1,2(a0)
    800002b4:	00451607          	flh	fa2,4(a0)
    800002b8:	00651683          	lh	a3,6(a0)
    800002bc:	2cb506d3          	fmin.h	fa3,fa0,fa1
    800002c0:	e4068553          	fmv.x.h	a0,fa3
    800002c4:	001015f3          	fsflags	a1,zero
    800002c8:	00000613          	li	a2,0
    800002cc:	26d51e63          	bne	a0,a3,80000548 <fail>
    800002d0:	26c59c63          	bne	a1,a2,80000548 <fail>

00000000800002d4 <test_12>:
    800002d4:	00c00193          	li	gp,12
    800002d8:	00002517          	auipc	a0,0x2
    800002dc:	d5850513          	addi	a0,a0,-680 # 80002030 <test_12_data>
    800002e0:	00051507          	flh	fa0,0(a0)
    800002e4:	00251587          	flh	fa1,2(a0)
    800002e8:	00451607          	flh	fa2,4(a0)
    800002ec:	00651683          	lh	a3,6(a0)
    800002f0:	2cb516d3          	fmax.h	fa3,fa0,fa1
    800002f4:	e4068553          	fmv.x.h	a0,fa3
    800002f8:	001015f3          	fsflags	a1,zero
    800002fc:	00000613          	li	a2,0
    80000300:	24d51463          	bne	a0,a3,80000548 <fail>
    80000304:	24c59263          	bne	a1,a2,80000548 <fail>

0000000080000308 <test_13>:
    80000308:	00d00193          	li	gp,13
    8000030c:	00002517          	auipc	a0,0x2
    80000310:	d2c50513          	addi	a0,a0,-724 # 80002038 <test_13_data>
    80000314:	00051507          	flh	fa0,0(a0)
    80000318:	00251587          	flh	fa1,2(a0)
    8000031c:	00451607          	flh	fa2,4(a0)
    80000320:	00651683          	lh	a3,6(a0)
    80000324:	2cb516d3          	fmax.h	fa3,fa0,fa1
    80000328:	e4068553          	fmv.x.h	a0,fa3
    8000032c:	001015f3          	fsflags	a1,zero
    80000330:	00000613          	li	a2,0
    80000334:	20d51a63          	bne	a0,a3,80000548 <fail>
    80000338:	20c59863          	bne	a1,a2,80000548 <fail>

000000008000033c <test_14>:
    8000033c:	00e00193          	li	gp,14
    80000340:	00002517          	auipc	a0,0x2
    80000344:	d0050513          	addi	a0,a0,-768 # 80002040 <test_14_data>
    80000348:	00051507          	flh	fa0,0(a0)
    8000034c:	00251587          	flh	fa1,2(a0)
    80000350:	00451607          	flh	fa2,4(a0)
    80000354:	00651683          	lh	a3,6(a0)
    80000358:	2cb516d3          	fmax.h	fa3,fa0,fa1
    8000035c:	e4068553          	fmv.x.h	a0,fa3
    80000360:	001015f3          	fsflags	a1,zero
    80000364:	00000613          	li	a2,0
    80000368:	1ed51063          	bne	a0,a3,80000548 <fail>
    8000036c:	1cc59e63          	bne	a1,a2,80000548 <fail>

0000000080000370 <test_15>:
    80000370:	00f00193          	li	gp,15
    80000374:	00002517          	auipc	a0,0x2
    80000378:	cd450513          	addi	a0,a0,-812 # 80002048 <test_15_data>
    8000037c:	00051507          	flh	fa0,0(a0)
    80000380:	00251587          	flh	fa1,2(a0)
    80000384:	00451607          	flh	fa2,4(a0)
    80000388:	00651683          	lh	a3,6(a0)
    8000038c:	2cb516d3          	fmax.h	fa3,fa0,fa1
    80000390:	e4068553          	fmv.x.h	a0,fa3
    80000394:	001015f3          	fsflags	a1,zero
    80000398:	00000613          	li	a2,0
    8000039c:	1ad51663          	bne	a0,a3,80000548 <fail>
    800003a0:	1ac59463          	bne	a1,a2,80000548 <fail>

00000000800003a4 <test_16>:
    800003a4:	01000193          	li	gp,16
    800003a8:	00002517          	auipc	a0,0x2
    800003ac:	ca850513          	addi	a0,a0,-856 # 80002050 <test_16_data>
    800003b0:	00051507          	flh	fa0,0(a0)
    800003b4:	00251587          	flh	fa1,2(a0)
    800003b8:	00451607          	flh	fa2,4(a0)
    800003bc:	00651683          	lh	a3,6(a0)
    800003c0:	2cb516d3          	fmax.h	fa3,fa0,fa1
    800003c4:	e4068553          	fmv.x.h	a0,fa3
    800003c8:	001015f3          	fsflags	a1,zero
    800003cc:	00000613          	li	a2,0
    800003d0:	16d51c63          	bne	a0,a3,80000548 <fail>
    800003d4:	16c59a63          	bne	a1,a2,80000548 <fail>

00000000800003d8 <test_17>:
    800003d8:	01100193          	li	gp,17
    800003dc:	00002517          	auipc	a0,0x2
    800003e0:	c7c50513          	addi	a0,a0,-900 # 80002058 <test_17_data>
    800003e4:	00051507          	flh	fa0,0(a0)
    800003e8:	00251587          	flh	fa1,2(a0)
    800003ec:	00451607          	flh	fa2,4(a0)
    800003f0:	00651683          	lh	a3,6(a0)
    800003f4:	2cb516d3          	fmax.h	fa3,fa0,fa1
    800003f8:	e4068553          	fmv.x.h	a0,fa3
    800003fc:	001015f3          	fsflags	a1,zero
    80000400:	00000613          	li	a2,0
    80000404:	14d51263          	bne	a0,a3,80000548 <fail>
    80000408:	14c59063          	bne	a1,a2,80000548 <fail>

000000008000040c <test_20>:
    8000040c:	01400193          	li	gp,20
    80000410:	00002517          	auipc	a0,0x2
    80000414:	c5050513          	addi	a0,a0,-944 # 80002060 <test_20_data>
    80000418:	00051507          	flh	fa0,0(a0)
    8000041c:	00251587          	flh	fa1,2(a0)
    80000420:	00451607          	flh	fa2,4(a0)
    80000424:	00651683          	lh	a3,6(a0)
    80000428:	2cb516d3          	fmax.h	fa3,fa0,fa1
    8000042c:	e4068553          	fmv.x.h	a0,fa3
    80000430:	001015f3          	fsflags	a1,zero
    80000434:	01000613          	li	a2,16
    80000438:	10d51863          	bne	a0,a3,80000548 <fail>
    8000043c:	10c59663          	bne	a1,a2,80000548 <fail>

0000000080000440 <test_21>:
    80000440:	01500193          	li	gp,21
    80000444:	00002517          	auipc	a0,0x2
    80000448:	c2450513          	addi	a0,a0,-988 # 80002068 <test_21_data>
    8000044c:	00051507          	flh	fa0,0(a0)
    80000450:	00251587          	flh	fa1,2(a0)
    80000454:	00451607          	flh	fa2,4(a0)
    80000458:	00651683          	lh	a3,6(a0)
    8000045c:	2cb516d3          	fmax.h	fa3,fa0,fa1
    80000460:	e4068553          	fmv.x.h	a0,fa3
    80000464:	001015f3          	fsflags	a1,zero
    80000468:	00000613          	li	a2,0
    8000046c:	0cd51e63          	bne	a0,a3,80000548 <fail>
    80000470:	0cc59c63          	bne	a1,a2,80000548 <fail>

0000000080000474 <test_30>:
    80000474:	01e00193          	li	gp,30
    80000478:	00002517          	auipc	a0,0x2
    8000047c:	bf850513          	addi	a0,a0,-1032 # 80002070 <test_30_data>
    80000480:	00051507          	flh	fa0,0(a0)
    80000484:	00251587          	flh	fa1,2(a0)
    80000488:	00451607          	flh	fa2,4(a0)
    8000048c:	00651683          	lh	a3,6(a0)
    80000490:	2cb506d3          	fmin.h	fa3,fa0,fa1
    80000494:	e4068553          	fmv.x.h	a0,fa3
    80000498:	001015f3          	fsflags	a1,zero
    8000049c:	00000613          	li	a2,0
    800004a0:	0ad51463          	bne	a0,a3,80000548 <fail>
    800004a4:	0ac59263          	bne	a1,a2,80000548 <fail>

00000000800004a8 <test_31>:
    800004a8:	01f00193          	li	gp,31
    800004ac:	00002517          	auipc	a0,0x2
    800004b0:	bcc50513          	addi	a0,a0,-1076 # 80002078 <test_31_data>
    800004b4:	00051507          	flh	fa0,0(a0)
    800004b8:	00251587          	flh	fa1,2(a0)
    800004bc:	00451607          	flh	fa2,4(a0)
    800004c0:	00651683          	lh	a3,6(a0)
    800004c4:	2cb506d3          	fmin.h	fa3,fa0,fa1
    800004c8:	e4068553          	fmv.x.h	a0,fa3
    800004cc:	001015f3          	fsflags	a1,zero
    800004d0:	00000613          	li	a2,0
    800004d4:	06d51a63          	bne	a0,a3,80000548 <fail>
    800004d8:	06c59863          	bne	a1,a2,80000548 <fail>

00000000800004dc <test_32>:
    800004dc:	02000193          	li	gp,32
    800004e0:	00002517          	auipc	a0,0x2
    800004e4:	ba050513          	addi	a0,a0,-1120 # 80002080 <test_32_data>
    800004e8:	00051507          	flh	fa0,0(a0)
    800004ec:	00251587          	flh	fa1,2(a0)
    800004f0:	00451607          	flh	fa2,4(a0)
    800004f4:	00651683          	lh	a3,6(a0)
    800004f8:	2cb516d3          	fmax.h	fa3,fa0,fa1
    800004fc:	e4068553          	fmv.x.h	a0,fa3
    80000500:	001015f3          	fsflags	a1,zero
    80000504:	00000613          	li	a2,0
    80000508:	04d51063          	bne	a0,a3,80000548 <fail>
    8000050c:	02c59e63          	bne	a1,a2,80000548 <fail>

0000000080000510 <test_33>:
    80000510:	02100193          	li	gp,33
    80000514:	00002517          	auipc	a0,0x2
    80000518:	b7450513          	addi	a0,a0,-1164 # 80002088 <test_33_data>
    8000051c:	00051507          	flh	fa0,0(a0)
    80000520:	00251587          	flh	fa1,2(a0)
    80000524:	00451607          	flh	fa2,4(a0)
    80000528:	00651683          	lh	a3,6(a0)
    8000052c:	2cb516d3          	fmax.h	fa3,fa0,fa1
    80000530:	e4068553          	fmv.x.h	a0,fa3
    80000534:	001015f3          	fsflags	a1,zero
    80000538:	00000613          	li	a2,0
    8000053c:	00d51663          	bne	a0,a3,80000548 <fail>
    80000540:	00c59463          	bne	a1,a2,80000548 <fail>
    80000544:	02301063          	bne	zero,gp,80000564 <pass>

0000000080000548 <fail>:
    80000548:	0ff0000f          	fence
    8000054c:	00018063          	beqz	gp,8000054c <fail+0x4>
    80000550:	00119193          	slli	gp,gp,0x1
    80000554:	0011e193          	ori	gp,gp,1
    80000558:	05d00893          	li	a7,93
    8000055c:	00018513          	mv	a0,gp
    80000560:	00000073          	ecall

0000000080000564 <pass>:
    80000564:	0ff0000f          	fence
    80000568:	00100193          	li	gp,1
    8000056c:	05d00893          	li	a7,93
    80000570:	00000513          	li	a0,0
    80000574:	00000073          	ecall
    80000578:	c0001073          	unimp
