
rv64ui-p-slliw:     file format elf64-littleriscv


Disassembly of section .text.init:

0000000080000000 <_start>:
    80000000:	0500006f          	j	80000050 <reset_vector>

0000000080000004 <trap_vector>:
    80000004:	34202f73          	csrr	t5,mcause
    80000008:	00800f93          	li	t6,8
    8000000c:	03ff0863          	beq	t5,t6,8000003c <write_tohost>
    80000010:	00900f93          	li	t6,9
    80000014:	03ff0463          	beq	t5,t6,8000003c <write_tohost>
    80000018:	00b00f93          	li	t6,11
    8000001c:	03ff0063          	beq	t5,t6,8000003c <write_tohost>
    80000020:	00000f13          	li	t5,0
    80000024:	000f0463          	beqz	t5,8000002c <trap_vector+0x28>
    80000028:	000f0067          	jr	t5
    8000002c:	34202f73          	csrr	t5,mcause
    80000030:	000f5463          	bgez	t5,80000038 <handle_exception>
    80000034:	0040006f          	j	80000038 <handle_exception>

0000000080000038 <handle_exception>:
    80000038:	5391e193          	ori	gp,gp,1337

000000008000003c <write_tohost>:
    8000003c:	00001f17          	auipc	t5,0x1
    80000040:	fc3f2223          	sw	gp,-60(t5) # 80001000 <tohost>
    80000044:	00001f17          	auipc	t5,0x1
    80000048:	fc0f2023          	sw	zero,-64(t5) # 80001004 <tohost+0x4>
    8000004c:	ff1ff06f          	j	8000003c <write_tohost>

0000000080000050 <reset_vector>:
    80000050:	00000093          	li	ra,0
    80000054:	00000113          	li	sp,0
    80000058:	00000193          	li	gp,0
    8000005c:	00000213          	li	tp,0
    80000060:	00000293          	li	t0,0
    80000064:	00000313          	li	t1,0
    80000068:	00000393          	li	t2,0
    8000006c:	00000413          	li	s0,0
    80000070:	00000493          	li	s1,0
    80000074:	00000513          	li	a0,0
    80000078:	00000593          	li	a1,0
    8000007c:	00000613          	li	a2,0
    80000080:	00000693          	li	a3,0
    80000084:	00000713          	li	a4,0
    80000088:	00000793          	li	a5,0
    8000008c:	00000813          	li	a6,0
    80000090:	00000893          	li	a7,0
    80000094:	00000913          	li	s2,0
    80000098:	00000993          	li	s3,0
    8000009c:	00000a13          	li	s4,0
    800000a0:	00000a93          	li	s5,0
    800000a4:	00000b13          	li	s6,0
    800000a8:	00000b93          	li	s7,0
    800000ac:	00000c13          	li	s8,0
    800000b0:	00000c93          	li	s9,0
    800000b4:	00000d13          	li	s10,0
    800000b8:	00000d93          	li	s11,0
    800000bc:	00000e13          	li	t3,0
    800000c0:	00000e93          	li	t4,0
    800000c4:	00000f13          	li	t5,0
    800000c8:	00000f93          	li	t6,0
    800000cc:	f1402573          	csrr	a0,mhartid
    800000d0:	00051063          	bnez	a0,800000d0 <reset_vector+0x80>
    800000d4:	00000297          	auipc	t0,0x0
    800000d8:	01028293          	addi	t0,t0,16 # 800000e4 <reset_vector+0x94>
    800000dc:	30529073          	csrw	mtvec,t0
    800000e0:	74445073          	csrwi	0x744,8
    800000e4:	00000297          	auipc	t0,0x0
    800000e8:	01028293          	addi	t0,t0,16 # 800000f4 <reset_vector+0xa4>
    800000ec:	30529073          	csrw	mtvec,t0
    800000f0:	18005073          	csrwi	satp,0
    800000f4:	00000297          	auipc	t0,0x0
    800000f8:	02428293          	addi	t0,t0,36 # 80000118 <reset_vector+0xc8>
    800000fc:	30529073          	csrw	mtvec,t0
    80000100:	0010029b          	addiw	t0,zero,1
    80000104:	03529293          	slli	t0,t0,0x35
    80000108:	fff28293          	addi	t0,t0,-1
    8000010c:	3b029073          	csrw	pmpaddr0,t0
    80000110:	01f00293          	li	t0,31
    80000114:	3a029073          	csrw	pmpcfg0,t0
    80000118:	30405073          	csrwi	mie,0
    8000011c:	00000297          	auipc	t0,0x0
    80000120:	01428293          	addi	t0,t0,20 # 80000130 <reset_vector+0xe0>
    80000124:	30529073          	csrw	mtvec,t0
    80000128:	30205073          	csrwi	medeleg,0
    8000012c:	30305073          	csrwi	mideleg,0
    80000130:	00000193          	li	gp,0
    80000134:	00000297          	auipc	t0,0x0
    80000138:	ed028293          	addi	t0,t0,-304 # 80000004 <trap_vector>
    8000013c:	30529073          	csrw	mtvec,t0
    80000140:	00100513          	li	a0,1
    80000144:	01f51513          	slli	a0,a0,0x1f
    80000148:	00055c63          	bgez	a0,80000160 <reset_vector+0x110>
    8000014c:	0ff0000f          	fence
    80000150:	00100193          	li	gp,1
    80000154:	05d00893          	li	a7,93
    80000158:	00000513          	li	a0,0
    8000015c:	00000073          	ecall
    80000160:	00000293          	li	t0,0
    80000164:	00028a63          	beqz	t0,80000178 <reset_vector+0x128>
    80000168:	10529073          	csrw	stvec,t0
    8000016c:	0000b2b7          	lui	t0,0xb
    80000170:	1092829b          	addiw	t0,t0,265 # b109 <_start-0x7fff4ef7>
    80000174:	30229073          	csrw	medeleg,t0
    80000178:	30005073          	csrwi	mstatus,0
    8000017c:	00000297          	auipc	t0,0x0
    80000180:	01428293          	addi	t0,t0,20 # 80000190 <test_2>
    80000184:	34129073          	csrw	mepc,t0
    80000188:	f1402573          	csrr	a0,mhartid
    8000018c:	30200073          	mret

0000000080000190 <test_2>:
    80000190:	00200193          	li	gp,2
    80000194:	00100693          	li	a3,1
    80000198:	0006971b          	slliw	a4,a3,0x0
    8000019c:	00100393          	li	t2,1
    800001a0:	30771263          	bne	a4,t2,800004a4 <fail>

00000000800001a4 <test_3>:
    800001a4:	00300193          	li	gp,3
    800001a8:	00100693          	li	a3,1
    800001ac:	0016971b          	slliw	a4,a3,0x1
    800001b0:	00200393          	li	t2,2
    800001b4:	2e771863          	bne	a4,t2,800004a4 <fail>

00000000800001b8 <test_4>:
    800001b8:	00400193          	li	gp,4
    800001bc:	00100693          	li	a3,1
    800001c0:	0076971b          	slliw	a4,a3,0x7
    800001c4:	08000393          	li	t2,128
    800001c8:	2c771e63          	bne	a4,t2,800004a4 <fail>

00000000800001cc <test_5>:
    800001cc:	00500193          	li	gp,5
    800001d0:	00100693          	li	a3,1
    800001d4:	00e6971b          	slliw	a4,a3,0xe
    800001d8:	000043b7          	lui	t2,0x4
    800001dc:	2c771463          	bne	a4,t2,800004a4 <fail>

00000000800001e0 <test_6>:
    800001e0:	00600193          	li	gp,6
    800001e4:	00100693          	li	a3,1
    800001e8:	01f6971b          	slliw	a4,a3,0x1f
    800001ec:	800003b7          	lui	t2,0x80000
    800001f0:	2a771a63          	bne	a4,t2,800004a4 <fail>

00000000800001f4 <test_7>:
    800001f4:	00700193          	li	gp,7
    800001f8:	fff00693          	li	a3,-1
    800001fc:	0006971b          	slliw	a4,a3,0x0
    80000200:	fff00393          	li	t2,-1
    80000204:	2a771063          	bne	a4,t2,800004a4 <fail>

0000000080000208 <test_8>:
    80000208:	00800193          	li	gp,8
    8000020c:	fff00693          	li	a3,-1
    80000210:	0016971b          	slliw	a4,a3,0x1
    80000214:	ffe00393          	li	t2,-2
    80000218:	28771663          	bne	a4,t2,800004a4 <fail>

000000008000021c <test_9>:
    8000021c:	00900193          	li	gp,9
    80000220:	fff00693          	li	a3,-1
    80000224:	0076971b          	slliw	a4,a3,0x7
    80000228:	f8000393          	li	t2,-128
    8000022c:	26771c63          	bne	a4,t2,800004a4 <fail>

0000000080000230 <test_10>:
    80000230:	00a00193          	li	gp,10
    80000234:	fff00693          	li	a3,-1
    80000238:	00e6971b          	slliw	a4,a3,0xe
    8000023c:	ffffc3b7          	lui	t2,0xffffc
    80000240:	26771263          	bne	a4,t2,800004a4 <fail>

0000000080000244 <test_11>:
    80000244:	00b00193          	li	gp,11
    80000248:	fff00693          	li	a3,-1
    8000024c:	01f6971b          	slliw	a4,a3,0x1f
    80000250:	800003b7          	lui	t2,0x80000
    80000254:	24771863          	bne	a4,t2,800004a4 <fail>

0000000080000258 <test_12>:
    80000258:	00c00193          	li	gp,12
    8000025c:	212126b7          	lui	a3,0x21212
    80000260:	1216869b          	addiw	a3,a3,289 # 21212121 <_start-0x5edededf>
    80000264:	0006971b          	slliw	a4,a3,0x0
    80000268:	212123b7          	lui	t2,0x21212
    8000026c:	1213839b          	addiw	t2,t2,289 # 21212121 <_start-0x5edededf>
    80000270:	22771a63          	bne	a4,t2,800004a4 <fail>

0000000080000274 <test_13>:
    80000274:	00d00193          	li	gp,13
    80000278:	212126b7          	lui	a3,0x21212
    8000027c:	1216869b          	addiw	a3,a3,289 # 21212121 <_start-0x5edededf>
    80000280:	0016971b          	slliw	a4,a3,0x1
    80000284:	424243b7          	lui	t2,0x42424
    80000288:	2423839b          	addiw	t2,t2,578 # 42424242 <_start-0x3dbdbdbe>
    8000028c:	20771c63          	bne	a4,t2,800004a4 <fail>

0000000080000290 <test_14>:
    80000290:	00e00193          	li	gp,14
    80000294:	212126b7          	lui	a3,0x21212
    80000298:	1216869b          	addiw	a3,a3,289 # 21212121 <_start-0x5edededf>
    8000029c:	0076971b          	slliw	a4,a3,0x7
    800002a0:	909093b7          	lui	t2,0x90909
    800002a4:	0803839b          	addiw	t2,t2,128 # ffffffff90909080 <_end+0xffffffff10907080>
    800002a8:	1e771e63          	bne	a4,t2,800004a4 <fail>

00000000800002ac <test_15>:
    800002ac:	00f00193          	li	gp,15
    800002b0:	212126b7          	lui	a3,0x21212
    800002b4:	1216869b          	addiw	a3,a3,289 # 21212121 <_start-0x5edededf>
    800002b8:	00e6971b          	slliw	a4,a3,0xe
    800002bc:	484843b7          	lui	t2,0x48484
    800002c0:	1e771263          	bne	a4,t2,800004a4 <fail>

00000000800002c4 <test_16>:
    800002c4:	01000193          	li	gp,16
    800002c8:	212126b7          	lui	a3,0x21212
    800002cc:	1216869b          	addiw	a3,a3,289 # 21212121 <_start-0x5edededf>
    800002d0:	01f6971b          	slliw	a4,a3,0x1f
    800002d4:	800003b7          	lui	t2,0x80000
    800002d8:	1c771663          	bne	a4,t2,800004a4 <fail>

00000000800002dc <test_44>:
    800002dc:	02c00193          	li	gp,44
    800002e0:	fff126b7          	lui	a3,0xfff12
    800002e4:	3456869b          	addiw	a3,a3,837 # fffffffffff12345 <_end+0xffffffff7ff10345>
    800002e8:	00c69693          	slli	a3,a3,0xc
    800002ec:	67868693          	addi	a3,a3,1656
    800002f0:	0006971b          	slliw	a4,a3,0x0
    800002f4:	123453b7          	lui	t2,0x12345
    800002f8:	6783839b          	addiw	t2,t2,1656 # 12345678 <_start-0x6dcba988>
    800002fc:	1a771463          	bne	a4,t2,800004a4 <fail>

0000000080000300 <test_45>:
    80000300:	02d00193          	li	gp,45
    80000304:	fff126b7          	lui	a3,0xfff12
    80000308:	3456869b          	addiw	a3,a3,837 # fffffffffff12345 <_end+0xffffffff7ff10345>
    8000030c:	00c69693          	slli	a3,a3,0xc
    80000310:	67868693          	addi	a3,a3,1656
    80000314:	0046971b          	slliw	a4,a3,0x4
    80000318:	234563b7          	lui	t2,0x23456
    8000031c:	7803839b          	addiw	t2,t2,1920 # 23456780 <_start-0x5cba9880>
    80000320:	18771263          	bne	a4,t2,800004a4 <fail>

0000000080000324 <test_46>:
    80000324:	02e00193          	li	gp,46
    80000328:	000926b7          	lui	a3,0x92
    8000032c:	3456869b          	addiw	a3,a3,837 # 92345 <_start-0x7ff6dcbb>
    80000330:	00c69693          	slli	a3,a3,0xc
    80000334:	67868693          	addi	a3,a3,1656
    80000338:	0006971b          	slliw	a4,a3,0x0
    8000033c:	923453b7          	lui	t2,0x92345
    80000340:	6783839b          	addiw	t2,t2,1656 # ffffffff92345678 <_end+0xffffffff12343678>
    80000344:	16771063          	bne	a4,t2,800004a4 <fail>

0000000080000348 <test_47>:
    80000348:	02f00193          	li	gp,47
    8000034c:	000996b7          	lui	a3,0x99
    80000350:	3456869b          	addiw	a3,a3,837 # 99345 <_start-0x7ff66cbb>
    80000354:	00c69693          	slli	a3,a3,0xc
    80000358:	67868693          	addi	a3,a3,1656
    8000035c:	0046971b          	slliw	a4,a3,0x4
    80000360:	934563b7          	lui	t2,0x93456
    80000364:	7803839b          	addiw	t2,t2,1920 # ffffffff93456780 <_end+0xffffffff13454780>
    80000368:	12771e63          	bne	a4,t2,800004a4 <fail>

000000008000036c <test_17>:
    8000036c:	01100193          	li	gp,17
    80000370:	00100593          	li	a1,1
    80000374:	0075959b          	slliw	a1,a1,0x7
    80000378:	08000393          	li	t2,128
    8000037c:	12759463          	bne	a1,t2,800004a4 <fail>

0000000080000380 <test_18>:
    80000380:	01200193          	li	gp,18
    80000384:	00000213          	li	tp,0
    80000388:	00100093          	li	ra,1
    8000038c:	0070971b          	slliw	a4,ra,0x7
    80000390:	00070313          	mv	t1,a4
    80000394:	00120213          	addi	tp,tp,1 # 1 <_start-0x7fffffff>
    80000398:	00200293          	li	t0,2
    8000039c:	fe5216e3          	bne	tp,t0,80000388 <test_18+0x8>
    800003a0:	08000393          	li	t2,128
    800003a4:	10731063          	bne	t1,t2,800004a4 <fail>

00000000800003a8 <test_19>:
    800003a8:	01300193          	li	gp,19
    800003ac:	00000213          	li	tp,0
    800003b0:	00100093          	li	ra,1
    800003b4:	00e0971b          	slliw	a4,ra,0xe
    800003b8:	00000013          	nop
    800003bc:	00070313          	mv	t1,a4
    800003c0:	00120213          	addi	tp,tp,1 # 1 <_start-0x7fffffff>
    800003c4:	00200293          	li	t0,2
    800003c8:	fe5214e3          	bne	tp,t0,800003b0 <test_19+0x8>
    800003cc:	000043b7          	lui	t2,0x4
    800003d0:	0c731a63          	bne	t1,t2,800004a4 <fail>

00000000800003d4 <test_20>:
    800003d4:	01400193          	li	gp,20
    800003d8:	00000213          	li	tp,0
    800003dc:	00100093          	li	ra,1
    800003e0:	01f0971b          	slliw	a4,ra,0x1f
    800003e4:	00000013          	nop
    800003e8:	00000013          	nop
    800003ec:	00070313          	mv	t1,a4
    800003f0:	00120213          	addi	tp,tp,1 # 1 <_start-0x7fffffff>
    800003f4:	00200293          	li	t0,2
    800003f8:	fe5212e3          	bne	tp,t0,800003dc <test_20+0x8>
    800003fc:	800003b7          	lui	t2,0x80000
    80000400:	0a731263          	bne	t1,t2,800004a4 <fail>

0000000080000404 <test_21>:
    80000404:	01500193          	li	gp,21
    80000408:	00000213          	li	tp,0
    8000040c:	00100093          	li	ra,1
    80000410:	0070971b          	slliw	a4,ra,0x7
    80000414:	00120213          	addi	tp,tp,1 # 1 <_start-0x7fffffff>
    80000418:	00200293          	li	t0,2
    8000041c:	fe5218e3          	bne	tp,t0,8000040c <test_21+0x8>
    80000420:	08000393          	li	t2,128
    80000424:	08771063          	bne	a4,t2,800004a4 <fail>

0000000080000428 <test_22>:
    80000428:	01600193          	li	gp,22
    8000042c:	00000213          	li	tp,0
    80000430:	00100093          	li	ra,1
    80000434:	00000013          	nop
    80000438:	00e0971b          	slliw	a4,ra,0xe
    8000043c:	00120213          	addi	tp,tp,1 # 1 <_start-0x7fffffff>
    80000440:	00200293          	li	t0,2
    80000444:	fe5216e3          	bne	tp,t0,80000430 <test_22+0x8>
    80000448:	000043b7          	lui	t2,0x4
    8000044c:	04771c63          	bne	a4,t2,800004a4 <fail>

0000000080000450 <test_23>:
    80000450:	01700193          	li	gp,23
    80000454:	00000213          	li	tp,0
    80000458:	00100093          	li	ra,1
    8000045c:	00000013          	nop
    80000460:	00000013          	nop
    80000464:	01f0971b          	slliw	a4,ra,0x1f
    80000468:	00120213          	addi	tp,tp,1 # 1 <_start-0x7fffffff>
    8000046c:	00200293          	li	t0,2
    80000470:	fe5214e3          	bne	tp,t0,80000458 <test_23+0x8>
    80000474:	800003b7          	lui	t2,0x80000
    80000478:	02771663          	bne	a4,t2,800004a4 <fail>

000000008000047c <test_24>:
    8000047c:	01800193          	li	gp,24
    80000480:	01f0109b          	slliw	ra,zero,0x1f
    80000484:	00000393          	li	t2,0
    80000488:	00709e63          	bne	ra,t2,800004a4 <fail>

000000008000048c <test_25>:
    8000048c:	01900193          	li	gp,25
    80000490:	01f00093          	li	ra,31
    80000494:	01c0901b          	slliw	zero,ra,0x1c
    80000498:	00000393          	li	t2,0
    8000049c:	00701463          	bne	zero,t2,800004a4 <fail>
    800004a0:	02301063          	bne	zero,gp,800004c0 <pass>

00000000800004a4 <fail>:
    800004a4:	0ff0000f          	fence
    800004a8:	00018063          	beqz	gp,800004a8 <fail+0x4>
    800004ac:	00119193          	slli	gp,gp,0x1
    800004b0:	0011e193          	ori	gp,gp,1
    800004b4:	05d00893          	li	a7,93
    800004b8:	00018513          	mv	a0,gp
    800004bc:	00000073          	ecall

00000000800004c0 <pass>:
    800004c0:	0ff0000f          	fence
    800004c4:	00100193          	li	gp,1
    800004c8:	05d00893          	li	a7,93
    800004cc:	00000513          	li	a0,0
    800004d0:	00000073          	ecall
    800004d4:	c0001073          	unimp
    800004d8:	0000                	.insn	2, 0x
    800004da:	0000                	.insn	2, 0x
    800004dc:	0000                	.insn	2, 0x
    800004de:	0000                	.insn	2, 0x
    800004e0:	0000                	.insn	2, 0x
    800004e2:	0000                	.insn	2, 0x
    800004e4:	0000                	.insn	2, 0x
    800004e6:	0000                	.insn	2, 0x
    800004e8:	0000                	.insn	2, 0x
    800004ea:	0000                	.insn	2, 0x
    800004ec:	0000                	.insn	2, 0x
    800004ee:	0000                	.insn	2, 0x
    800004f0:	0000                	.insn	2, 0x
    800004f2:	0000                	.insn	2, 0x
    800004f4:	0000                	.insn	2, 0x
    800004f6:	0000                	.insn	2, 0x
    800004f8:	0000                	.insn	2, 0x
    800004fa:	0000                	.insn	2, 0x
