
rv64mi-p-ma_addr:     file format elf64-littleriscv


Disassembly of section .text.init:

0000000080000000 <_start>:
    80000000:	0540006f          	j	80000054 <reset_vector>

0000000080000004 <trap_vector>:
    80000004:	34202f73          	csrr	t5,mcause
    80000008:	00800f93          	li	t6,8
    8000000c:	03ff0a63          	beq	t5,t6,80000040 <write_tohost>
    80000010:	00900f93          	li	t6,9
    80000014:	03ff0663          	beq	t5,t6,80000040 <write_tohost>
    80000018:	00b00f93          	li	t6,11
    8000001c:	03ff0263          	beq	t5,t6,80000040 <write_tohost>
    80000020:	00000f17          	auipc	t5,0x0
    80000024:	698f0f13          	addi	t5,t5,1688 # 800006b8 <mtvec_handler>
    80000028:	000f0463          	beqz	t5,80000030 <trap_vector+0x2c>
    8000002c:	000f0067          	jr	t5
    80000030:	34202f73          	csrr	t5,mcause
    80000034:	000f5463          	bgez	t5,8000003c <handle_exception>
    80000038:	0040006f          	j	8000003c <handle_exception>

000000008000003c <handle_exception>:
    8000003c:	5391e193          	ori	gp,gp,1337

0000000080000040 <write_tohost>:
    80000040:	00001f17          	auipc	t5,0x1
    80000044:	fc3f2023          	sw	gp,-64(t5) # 80001000 <tohost>
    80000048:	00001f17          	auipc	t5,0x1
    8000004c:	fa0f2e23          	sw	zero,-68(t5) # 80001004 <tohost+0x4>
    80000050:	ff1ff06f          	j	80000040 <write_tohost>

0000000080000054 <reset_vector>:
    80000054:	00000093          	li	ra,0
    80000058:	00000113          	li	sp,0
    8000005c:	00000193          	li	gp,0
    80000060:	00000213          	li	tp,0
    80000064:	00000293          	li	t0,0
    80000068:	00000313          	li	t1,0
    8000006c:	00000393          	li	t2,0
    80000070:	00000413          	li	s0,0
    80000074:	00000493          	li	s1,0
    80000078:	00000513          	li	a0,0
    8000007c:	00000593          	li	a1,0
    80000080:	00000613          	li	a2,0
    80000084:	00000693          	li	a3,0
    80000088:	00000713          	li	a4,0
    8000008c:	00000793          	li	a5,0
    80000090:	00000813          	li	a6,0
    80000094:	00000893          	li	a7,0
    80000098:	00000913          	li	s2,0
    8000009c:	00000993          	li	s3,0
    800000a0:	00000a13          	li	s4,0
    800000a4:	00000a93          	li	s5,0
    800000a8:	00000b13          	li	s6,0
    800000ac:	00000b93          	li	s7,0
    800000b0:	00000c13          	li	s8,0
    800000b4:	00000c93          	li	s9,0
    800000b8:	00000d13          	li	s10,0
    800000bc:	00000d93          	li	s11,0
    800000c0:	00000e13          	li	t3,0
    800000c4:	00000e93          	li	t4,0
    800000c8:	00000f13          	li	t5,0
    800000cc:	00000f93          	li	t6,0
    800000d0:	f1402573          	csrr	a0,mhartid
    800000d4:	00051063          	bnez	a0,800000d4 <reset_vector+0x80>
    800000d8:	00000297          	auipc	t0,0x0
    800000dc:	01028293          	addi	t0,t0,16 # 800000e8 <reset_vector+0x94>
    800000e0:	30529073          	csrw	mtvec,t0
    800000e4:	74445073          	csrwi	0x744,8
    800000e8:	00000297          	auipc	t0,0x0
    800000ec:	01028293          	addi	t0,t0,16 # 800000f8 <reset_vector+0xa4>
    800000f0:	30529073          	csrw	mtvec,t0
    800000f4:	18005073          	csrwi	satp,0
    800000f8:	00000297          	auipc	t0,0x0
    800000fc:	02428293          	addi	t0,t0,36 # 8000011c <reset_vector+0xc8>
    80000100:	30529073          	csrw	mtvec,t0
    80000104:	0010029b          	addiw	t0,zero,1
    80000108:	03529293          	slli	t0,t0,0x35
    8000010c:	fff28293          	addi	t0,t0,-1
    80000110:	3b029073          	csrw	pmpaddr0,t0
    80000114:	01f00293          	li	t0,31
    80000118:	3a029073          	csrw	pmpcfg0,t0
    8000011c:	30405073          	csrwi	mie,0
    80000120:	00000297          	auipc	t0,0x0
    80000124:	01428293          	addi	t0,t0,20 # 80000134 <reset_vector+0xe0>
    80000128:	30529073          	csrw	mtvec,t0
    8000012c:	30205073          	csrwi	medeleg,0
    80000130:	30305073          	csrwi	mideleg,0
    80000134:	00000193          	li	gp,0
    80000138:	00000297          	auipc	t0,0x0
    8000013c:	ecc28293          	addi	t0,t0,-308 # 80000004 <trap_vector>
    80000140:	30529073          	csrw	mtvec,t0
    80000144:	00100513          	li	a0,1
    80000148:	01f51513          	slli	a0,a0,0x1f
    8000014c:	00055c63          	bgez	a0,80000164 <reset_vector+0x110>
    80000150:	0ff0000f          	fence
    80000154:	00100193          	li	gp,1
    80000158:	05d00893          	li	a7,93
    8000015c:	00000513          	li	a0,0
    80000160:	00000073          	ecall
    80000164:	00000293          	li	t0,0
    80000168:	00028a63          	beqz	t0,8000017c <reset_vector+0x128>
    8000016c:	10529073          	csrw	stvec,t0
    80000170:	0000b2b7          	lui	t0,0xb
    80000174:	1092829b          	addiw	t0,t0,265 # b109 <_start-0x7fff4ef7>
    80000178:	30229073          	csrw	medeleg,t0
    8000017c:	30005073          	csrwi	mstatus,0
    80000180:	00002537          	lui	a0,0x2
    80000184:	8005051b          	addiw	a0,a0,-2048 # 1800 <_start-0x7fffe800>
    80000188:	30052073          	csrs	mstatus,a0
    8000018c:	00000297          	auipc	t0,0x0
    80000190:	01428293          	addi	t0,t0,20 # 800001a0 <reset_vector+0x14c>
    80000194:	34129073          	csrw	mepc,t0
    80000198:	f1402573          	csrr	a0,mhartid
    8000019c:	30200073          	mret
    800001a0:	00002417          	auipc	s0,0x2
    800001a4:	e6040413          	addi	s0,s0,-416 # 80002000 <begin_signature>
    800001a8:	00400493          	li	s1,4
    800001ac:	00500913          	li	s2,5
    800001b0:	00200193          	li	gp,2
    800001b4:	00000397          	auipc	t2,0x0
    800001b8:	01c38393          	addi	t2,t2,28 # 800001d0 <reset_vector+0x17c>
    800001bc:	00140313          	addi	t1,s0,1
    800001c0:	00141303          	lh	t1,1(s0)
    800001c4:	ffffc3b7          	lui	t2,0xffffc
    800001c8:	bcc3839b          	addiw	t2,t2,-1076 # ffffffffffffbbcc <_end+0xffffffff7fff9abc>
    800001cc:	4a731e63          	bne	t1,t2,80000688 <fail>
    800001d0:	00300193          	li	gp,3
    800001d4:	00000397          	auipc	t2,0x0
    800001d8:	01c38393          	addi	t2,t2,28 # 800001f0 <reset_vector+0x19c>
    800001dc:	00140313          	addi	t1,s0,1
    800001e0:	00145303          	lhu	t1,1(s0)
    800001e4:	0000c3b7          	lui	t2,0xc
    800001e8:	bcc3839b          	addiw	t2,t2,-1076 # bbcc <_start-0x7fff4434>
    800001ec:	48731e63          	bne	t1,t2,80000688 <fail>
    800001f0:	00400193          	li	gp,4
    800001f4:	00000397          	auipc	t2,0x0
    800001f8:	01c38393          	addi	t2,t2,28 # 80000210 <reset_vector+0x1bc>
    800001fc:	00140313          	addi	t1,s0,1
    80000200:	00142303          	lw	t1,1(s0)
    80000204:	99aac3b7          	lui	t2,0x99aac
    80000208:	bcc3839b          	addiw	t2,t2,-1076 # ffffffff99aabbcc <_end+0xffffffff19aa9abc>
    8000020c:	46731e63          	bne	t1,t2,80000688 <fail>
    80000210:	00500193          	li	gp,5
    80000214:	00000397          	auipc	t2,0x0
    80000218:	01c38393          	addi	t2,t2,28 # 80000230 <reset_vector+0x1dc>
    8000021c:	00240313          	addi	t1,s0,2
    80000220:	00242303          	lw	t1,2(s0)
    80000224:	8899b3b7          	lui	t2,0x8899b
    80000228:	abb3839b          	addiw	t2,t2,-1349 # ffffffff8899aabb <_end+0xffffffff089989ab>
    8000022c:	44731e63          	bne	t1,t2,80000688 <fail>
    80000230:	00600193          	li	gp,6
    80000234:	00000397          	auipc	t2,0x0
    80000238:	01c38393          	addi	t2,t2,28 # 80000250 <reset_vector+0x1fc>
    8000023c:	00340313          	addi	t1,s0,3
    80000240:	00342303          	lw	t1,3(s0)
    80000244:	7788a3b7          	lui	t2,0x7788a
    80000248:	9aa3839b          	addiw	t2,t2,-1622 # 778899aa <_start-0x8776656>
    8000024c:	42731e63          	bne	t1,t2,80000688 <fail>
    80000250:	00700193          	li	gp,7
    80000254:	00000397          	auipc	t2,0x0
    80000258:	02438393          	addi	t2,t2,36 # 80000278 <reset_vector+0x224>
    8000025c:	00140313          	addi	t1,s0,1
    80000260:	00146303          	lwu	t1,1(s0)
    80000264:	000263b7          	lui	t2,0x26
    80000268:	6ab3839b          	addiw	t2,t2,1707 # 266ab <_start-0x7ffd9955>
    8000026c:	00e39393          	slli	t2,t2,0xe
    80000270:	bcc38393          	addi	t2,t2,-1076
    80000274:	40731a63          	bne	t1,t2,80000688 <fail>
    80000278:	00800193          	li	gp,8
    8000027c:	00000397          	auipc	t2,0x0
    80000280:	02438393          	addi	t2,t2,36 # 800002a0 <reset_vector+0x24c>
    80000284:	00240313          	addi	t1,s0,2
    80000288:	00246303          	lwu	t1,2(s0)
    8000028c:	000893b7          	lui	t2,0x89
    80000290:	99b3839b          	addiw	t2,t2,-1637 # 8899b <_start-0x7ff77665>
    80000294:	00c39393          	slli	t2,t2,0xc
    80000298:	abb38393          	addi	t2,t2,-1349
    8000029c:	3e731663          	bne	t1,t2,80000688 <fail>
    800002a0:	00900193          	li	gp,9
    800002a4:	00000397          	auipc	t2,0x0
    800002a8:	01c38393          	addi	t2,t2,28 # 800002c0 <reset_vector+0x26c>
    800002ac:	00340313          	addi	t1,s0,3
    800002b0:	00346303          	lwu	t1,3(s0)
    800002b4:	7788a3b7          	lui	t2,0x7788a
    800002b8:	9aa3839b          	addiw	t2,t2,-1622 # 778899aa <_start-0x8776656>
    800002bc:	3c731663          	bne	t1,t2,80000688 <fail>
    800002c0:	00a00193          	li	gp,10
    800002c4:	00000397          	auipc	t2,0x0
    800002c8:	03438393          	addi	t2,t2,52 # 800002f8 <reset_vector+0x2a4>
    800002cc:	00140313          	addi	t1,s0,1
    800002d0:	00143303          	ld	t1,1(s0)
    800002d4:	00aad3b7          	lui	t2,0xaad
    800002d8:	cef3839b          	addiw	t2,t2,-785 # aaccef <_start-0x7f553311>
    800002dc:	00c39393          	slli	t2,t2,0xc
    800002e0:	11338393          	addi	t2,t2,275
    800002e4:	00d39393          	slli	t2,t2,0xd
    800002e8:	6ab38393          	addi	t2,t2,1707
    800002ec:	00e39393          	slli	t2,t2,0xe
    800002f0:	bcc38393          	addi	t2,t2,-1076
    800002f4:	38731a63          	bne	t1,t2,80000688 <fail>
    800002f8:	00b00193          	li	gp,11
    800002fc:	00000397          	auipc	t2,0x0
    80000300:	03438393          	addi	t2,t2,52 # 80000330 <reset_vector+0x2dc>
    80000304:	00240313          	addi	t1,s0,2
    80000308:	00243303          	ld	t1,2(s0)
    8000030c:	044553b7          	lui	t2,0x4455
    80000310:	6673839b          	addiw	t2,t2,1639 # 4455667 <_start-0x7bbaa999>
    80000314:	00c39393          	slli	t2,t2,0xc
    80000318:	78938393          	addi	t2,t2,1929
    8000031c:	00c39393          	slli	t2,t2,0xc
    80000320:	99b38393          	addi	t2,t2,-1637
    80000324:	00c39393          	slli	t2,t2,0xc
    80000328:	abb38393          	addi	t2,t2,-1349
    8000032c:	34731e63          	bne	t1,t2,80000688 <fail>
    80000330:	00c00193          	li	gp,12
    80000334:	00000397          	auipc	t2,0x0
    80000338:	03438393          	addi	t2,t2,52 # 80000368 <reset_vector+0x314>
    8000033c:	00340313          	addi	t1,s0,3
    80000340:	00343303          	ld	t1,3(s0)
    80000344:	006693b7          	lui	t2,0x669
    80000348:	8ab3839b          	addiw	t2,t2,-1877 # 6688ab <_start-0x7f997755>
    8000034c:	00c39393          	slli	t2,t2,0xc
    80000350:	ccf38393          	addi	t2,t2,-817
    80000354:	00e39393          	slli	t2,t2,0xe
    80000358:	c4538393          	addi	t2,t2,-955
    8000035c:	00d39393          	slli	t2,t2,0xd
    80000360:	9aa38393          	addi	t2,t2,-1622
    80000364:	32731263          	bne	t1,t2,80000688 <fail>
    80000368:	00d00193          	li	gp,13
    8000036c:	00000397          	auipc	t2,0x0
    80000370:	03438393          	addi	t2,t2,52 # 800003a0 <reset_vector+0x34c>
    80000374:	00440313          	addi	t1,s0,4
    80000378:	00443303          	ld	t1,4(s0)
    8000037c:	0111a3b7          	lui	t2,0x111a
    80000380:	a233839b          	addiw	t2,t2,-1501 # 1119a23 <_start-0x7eee65dd>
    80000384:	00c39393          	slli	t2,t2,0xc
    80000388:	ab338393          	addi	t2,t2,-1357
    8000038c:	00d39393          	slli	t2,t2,0xd
    80000390:	77938393          	addi	t2,t2,1913
    80000394:	00c39393          	slli	t2,t2,0xc
    80000398:	89938393          	addi	t2,t2,-1895
    8000039c:	2e731663          	bne	t1,t2,80000688 <fail>
    800003a0:	00e00193          	li	gp,14
    800003a4:	00000397          	auipc	t2,0x0
    800003a8:	03438393          	addi	t2,t2,52 # 800003d8 <reset_vector+0x384>
    800003ac:	00540313          	addi	t1,s0,5
    800003b0:	00543303          	ld	t1,5(s0)
    800003b4:	004493b7          	lui	t2,0x449
    800003b8:	8cd3839b          	addiw	t2,t2,-1843 # 4488cd <_start-0x7fbb7733>
    800003bc:	00e39393          	slli	t2,t2,0xe
    800003c0:	45538393          	addi	t2,t2,1109
    800003c4:	00c39393          	slli	t2,t2,0xc
    800003c8:	66738393          	addi	t2,t2,1639
    800003cc:	00c39393          	slli	t2,t2,0xc
    800003d0:	78838393          	addi	t2,t2,1928
    800003d4:	2a731a63          	bne	t1,t2,80000688 <fail>
    800003d8:	00f00193          	li	gp,15
    800003dc:	00000397          	auipc	t2,0x0
    800003e0:	03438393          	addi	t2,t2,52 # 80000410 <reset_vector+0x3bc>
    800003e4:	00640313          	addi	t1,s0,6
    800003e8:	00643303          	ld	t1,6(s0)
    800003ec:	ffb843b7          	lui	t2,0xffb84
    800003f0:	4893839b          	addiw	t2,t2,1161 # ffffffffffb84489 <_end+0xffffffff7fb82379>
    800003f4:	00c39393          	slli	t2,t2,0xc
    800003f8:	cd138393          	addi	t2,t2,-815
    800003fc:	00d39393          	slli	t2,t2,0xd
    80000400:	2ab38393          	addi	t2,t2,683
    80000404:	00d39393          	slli	t2,t2,0xd
    80000408:	67738393          	addi	t2,t2,1655
    8000040c:	26731e63          	bne	t1,t2,80000688 <fail>
    80000410:	01000193          	li	gp,16
    80000414:	00000397          	auipc	t2,0x0
    80000418:	02c38393          	addi	t2,t2,44 # 80000440 <reset_vector+0x3ec>
    8000041c:	00740313          	addi	t1,s0,7
    80000420:	00743303          	ld	t1,7(s0)
    80000424:	ee1123b7          	lui	t2,0xee112
    80000428:	2333839b          	addiw	t2,t2,563 # ffffffffee112233 <_end+0xffffffff6e110123>
    8000042c:	00c39393          	slli	t2,t2,0xc
    80000430:	44538393          	addi	t2,t2,1093
    80000434:	00c39393          	slli	t2,t2,0xc
    80000438:	56638393          	addi	t2,t2,1382
    8000043c:	24731663          	bne	t1,t2,80000688 <fail>
    80000440:	00600493          	li	s1,6
    80000444:	00700913          	li	s2,7
    80000448:	01600193          	li	gp,22
    8000044c:	00000397          	auipc	t2,0x0
    80000450:	03038393          	addi	t2,t2,48 # 8000047c <reset_vector+0x428>
    80000454:	00140313          	addi	t1,s0,1
    80000458:	000410a3          	sh	zero,1(s0)
    8000045c:	00040303          	lb	t1,0(s0)
    80000460:	22030463          	beqz	t1,80000688 <fail>
    80000464:	00340303          	lb	t1,3(s0)
    80000468:	22030063          	beqz	t1,80000688 <fail>
    8000046c:	00140303          	lb	t1,1(s0)
    80000470:	20031c63          	bnez	t1,80000688 <fail>
    80000474:	00240303          	lb	t1,2(s0)
    80000478:	20031863          	bnez	t1,80000688 <fail>
    8000047c:	01700193          	li	gp,23
    80000480:	00000397          	auipc	t2,0x0
    80000484:	03038393          	addi	t2,t2,48 # 800004b0 <reset_vector+0x45c>
    80000488:	00540313          	addi	t1,s0,5
    8000048c:	000422a3          	sw	zero,5(s0)
    80000490:	00440303          	lb	t1,4(s0)
    80000494:	1e030a63          	beqz	t1,80000688 <fail>
    80000498:	00940303          	lb	t1,9(s0)
    8000049c:	1e030663          	beqz	t1,80000688 <fail>
    800004a0:	00540303          	lb	t1,5(s0)
    800004a4:	1e031263          	bnez	t1,80000688 <fail>
    800004a8:	00840303          	lb	t1,8(s0)
    800004ac:	1c031e63          	bnez	t1,80000688 <fail>
    800004b0:	01800193          	li	gp,24
    800004b4:	00000397          	auipc	t2,0x0
    800004b8:	03038393          	addi	t2,t2,48 # 800004e4 <reset_vector+0x490>
    800004bc:	00a40313          	addi	t1,s0,10
    800004c0:	00042523          	sw	zero,10(s0)
    800004c4:	00940303          	lb	t1,9(s0)
    800004c8:	1c030063          	beqz	t1,80000688 <fail>
    800004cc:	00e40303          	lb	t1,14(s0)
    800004d0:	1a030c63          	beqz	t1,80000688 <fail>
    800004d4:	00a40303          	lb	t1,10(s0)
    800004d8:	1a031863          	bnez	t1,80000688 <fail>
    800004dc:	00d40303          	lb	t1,13(s0)
    800004e0:	1a031463          	bnez	t1,80000688 <fail>
    800004e4:	01900193          	li	gp,25
    800004e8:	00000397          	auipc	t2,0x0
    800004ec:	03038393          	addi	t2,t2,48 # 80000518 <reset_vector+0x4c4>
    800004f0:	00f40313          	addi	t1,s0,15
    800004f4:	000427a3          	sw	zero,15(s0)
    800004f8:	00e40303          	lb	t1,14(s0)
    800004fc:	18030663          	beqz	t1,80000688 <fail>
    80000500:	01340303          	lb	t1,19(s0)
    80000504:	18030263          	beqz	t1,80000688 <fail>
    80000508:	00f40303          	lb	t1,15(s0)
    8000050c:	16031e63          	bnez	t1,80000688 <fail>
    80000510:	01240303          	lb	t1,18(s0)
    80000514:	16031a63          	bnez	t1,80000688 <fail>
    80000518:	01a00193          	li	gp,26
    8000051c:	00000397          	auipc	t2,0x0
    80000520:	03038393          	addi	t2,t2,48 # 8000054c <reset_vector+0x4f8>
    80000524:	01940313          	addi	t1,s0,25
    80000528:	00043ca3          	sd	zero,25(s0)
    8000052c:	01840303          	lb	t1,24(s0)
    80000530:	14030c63          	beqz	t1,80000688 <fail>
    80000534:	02140303          	lb	t1,33(s0)
    80000538:	14030863          	beqz	t1,80000688 <fail>
    8000053c:	01940303          	lb	t1,25(s0)
    80000540:	14031463          	bnez	t1,80000688 <fail>
    80000544:	02040303          	lb	t1,32(s0)
    80000548:	14031063          	bnez	t1,80000688 <fail>
    8000054c:	01b00193          	li	gp,27
    80000550:	00000397          	auipc	t2,0x0
    80000554:	03038393          	addi	t2,t2,48 # 80000580 <reset_vector+0x52c>
    80000558:	02240313          	addi	t1,s0,34
    8000055c:	02043123          	sd	zero,34(s0)
    80000560:	02140303          	lb	t1,33(s0)
    80000564:	12030263          	beqz	t1,80000688 <fail>
    80000568:	02a40303          	lb	t1,42(s0)
    8000056c:	10030e63          	beqz	t1,80000688 <fail>
    80000570:	02240303          	lb	t1,34(s0)
    80000574:	10031a63          	bnez	t1,80000688 <fail>
    80000578:	02940303          	lb	t1,41(s0)
    8000057c:	10031663          	bnez	t1,80000688 <fail>
    80000580:	01c00193          	li	gp,28
    80000584:	00000397          	auipc	t2,0x0
    80000588:	03038393          	addi	t2,t2,48 # 800005b4 <reset_vector+0x560>
    8000058c:	02b40313          	addi	t1,s0,43
    80000590:	020435a3          	sd	zero,43(s0)
    80000594:	02a40303          	lb	t1,42(s0)
    80000598:	0e030863          	beqz	t1,80000688 <fail>
    8000059c:	03340303          	lb	t1,51(s0)
    800005a0:	0e030463          	beqz	t1,80000688 <fail>
    800005a4:	02b40303          	lb	t1,43(s0)
    800005a8:	0e031063          	bnez	t1,80000688 <fail>
    800005ac:	03240303          	lb	t1,50(s0)
    800005b0:	0c031c63          	bnez	t1,80000688 <fail>
    800005b4:	01d00193          	li	gp,29
    800005b8:	00000397          	auipc	t2,0x0
    800005bc:	03038393          	addi	t2,t2,48 # 800005e8 <reset_vector+0x594>
    800005c0:	03440313          	addi	t1,s0,52
    800005c4:	02043a23          	sd	zero,52(s0)
    800005c8:	03340303          	lb	t1,51(s0)
    800005cc:	0a030e63          	beqz	t1,80000688 <fail>
    800005d0:	03c40303          	lb	t1,60(s0)
    800005d4:	0a030a63          	beqz	t1,80000688 <fail>
    800005d8:	03440303          	lb	t1,52(s0)
    800005dc:	0a031663          	bnez	t1,80000688 <fail>
    800005e0:	03b40303          	lb	t1,59(s0)
    800005e4:	0a031263          	bnez	t1,80000688 <fail>
    800005e8:	01e00193          	li	gp,30
    800005ec:	00000397          	auipc	t2,0x0
    800005f0:	03038393          	addi	t2,t2,48 # 8000061c <reset_vector+0x5c8>
    800005f4:	03d40313          	addi	t1,s0,61
    800005f8:	02043ea3          	sd	zero,61(s0)
    800005fc:	03c40303          	lb	t1,60(s0)
    80000600:	08030463          	beqz	t1,80000688 <fail>
    80000604:	04540303          	lb	t1,69(s0)
    80000608:	08030063          	beqz	t1,80000688 <fail>
    8000060c:	03d40303          	lb	t1,61(s0)
    80000610:	06031c63          	bnez	t1,80000688 <fail>
    80000614:	04440303          	lb	t1,68(s0)
    80000618:	06031863          	bnez	t1,80000688 <fail>
    8000061c:	01f00193          	li	gp,31
    80000620:	00000397          	auipc	t2,0x0
    80000624:	03038393          	addi	t2,t2,48 # 80000650 <reset_vector+0x5fc>
    80000628:	04640313          	addi	t1,s0,70
    8000062c:	04043323          	sd	zero,70(s0)
    80000630:	04540303          	lb	t1,69(s0)
    80000634:	04030a63          	beqz	t1,80000688 <fail>
    80000638:	04e40303          	lb	t1,78(s0)
    8000063c:	04030663          	beqz	t1,80000688 <fail>
    80000640:	04640303          	lb	t1,70(s0)
    80000644:	04031263          	bnez	t1,80000688 <fail>
    80000648:	04d40303          	lb	t1,77(s0)
    8000064c:	02031e63          	bnez	t1,80000688 <fail>
    80000650:	02000193          	li	gp,32
    80000654:	00000397          	auipc	t2,0x0
    80000658:	03038393          	addi	t2,t2,48 # 80000684 <reset_vector+0x630>
    8000065c:	04f40313          	addi	t1,s0,79
    80000660:	040437a3          	sd	zero,79(s0)
    80000664:	04e40303          	lb	t1,78(s0)
    80000668:	02030063          	beqz	t1,80000688 <fail>
    8000066c:	05740303          	lb	t1,87(s0)
    80000670:	00030c63          	beqz	t1,80000688 <fail>
    80000674:	04f40303          	lb	t1,79(s0)
    80000678:	00031863          	bnez	t1,80000688 <fail>
    8000067c:	05640303          	lb	t1,86(s0)
    80000680:	00031463          	bnez	t1,80000688 <fail>
    80000684:	02301063          	bne	zero,gp,800006a4 <pass>

0000000080000688 <fail>:
    80000688:	0ff0000f          	fence
    8000068c:	00018063          	beqz	gp,8000068c <fail+0x4>
    80000690:	00119193          	slli	gp,gp,0x1
    80000694:	0011e193          	ori	gp,gp,1
    80000698:	05d00893          	li	a7,93
    8000069c:	00018513          	mv	a0,gp
    800006a0:	00000073          	ecall

00000000800006a4 <pass>:
    800006a4:	0ff0000f          	fence
    800006a8:	00100193          	li	gp,1
    800006ac:	05d00893          	li	a7,93
    800006b0:	00000513          	li	a0,0
    800006b4:	00000073          	ecall

00000000800006b8 <mtvec_handler>:
    800006b8:	342022f3          	csrr	t0,mcause
    800006bc:	00928663          	beq	t0,s1,800006c8 <mtvec_handler+0x10>
    800006c0:	01228463          	beq	t0,s2,800006c8 <mtvec_handler+0x10>
    800006c4:	fc5ff06f          	j	80000688 <fail>
    800006c8:	343022f3          	csrr	t0,mtval
    800006cc:	00028863          	beqz	t0,800006dc <mtvec_handler+0x24>
    800006d0:	fa629ce3          	bne	t0,t1,80000688 <fail>
    800006d4:	00028283          	lb	t0,0(t0)
    800006d8:	fa0288e3          	beqz	t0,80000688 <fail>
    800006dc:	34139073          	csrw	mepc,t2
    800006e0:	30200073          	mret
    800006e4:	c0001073          	unimp
    800006e8:	0000                	.insn	2, 0x
    800006ea:	0000                	.insn	2, 0x
    800006ec:	0000                	.insn	2, 0x
    800006ee:	0000                	.insn	2, 0x
    800006f0:	0000                	.insn	2, 0x
    800006f2:	0000                	.insn	2, 0x
    800006f4:	0000                	.insn	2, 0x
    800006f6:	0000                	.insn	2, 0x
    800006f8:	0000                	.insn	2, 0x
    800006fa:	0000                	.insn	2, 0x
