
rv64ui-p-lh:     file format elf64-littleriscv


Disassembly of section .text.init:

0000000080000000 <_start>:
    80000000:	0500006f          	j	80000050 <reset_vector>

0000000080000004 <trap_vector>:
    80000004:	34202f73          	csrr	t5,mcause
    80000008:	00800f93          	li	t6,8
    8000000c:	03ff0863          	beq	t5,t6,8000003c <write_tohost>
    80000010:	00900f93          	li	t6,9
    80000014:	03ff0463          	beq	t5,t6,8000003c <write_tohost>
    80000018:	00b00f93          	li	t6,11
    8000001c:	03ff0063          	beq	t5,t6,8000003c <write_tohost>
    80000020:	00000f13          	li	t5,0
    80000024:	000f0463          	beqz	t5,8000002c <trap_vector+0x28>
    80000028:	000f0067          	jr	t5
    8000002c:	34202f73          	csrr	t5,mcause
    80000030:	000f5463          	bgez	t5,80000038 <handle_exception>
    80000034:	0040006f          	j	80000038 <handle_exception>

0000000080000038 <handle_exception>:
    80000038:	5391e193          	ori	gp,gp,1337

000000008000003c <write_tohost>:
    8000003c:	00001f17          	auipc	t5,0x1
    80000040:	fc3f2223          	sw	gp,-60(t5) # 80001000 <tohost>
    80000044:	00001f17          	auipc	t5,0x1
    80000048:	fc0f2023          	sw	zero,-64(t5) # 80001004 <tohost+0x4>
    8000004c:	ff1ff06f          	j	8000003c <write_tohost>

0000000080000050 <reset_vector>:
    80000050:	00000093          	li	ra,0
    80000054:	00000113          	li	sp,0
    80000058:	00000193          	li	gp,0
    8000005c:	00000213          	li	tp,0
    80000060:	00000293          	li	t0,0
    80000064:	00000313          	li	t1,0
    80000068:	00000393          	li	t2,0
    8000006c:	00000413          	li	s0,0
    80000070:	00000493          	li	s1,0
    80000074:	00000513          	li	a0,0
    80000078:	00000593          	li	a1,0
    8000007c:	00000613          	li	a2,0
    80000080:	00000693          	li	a3,0
    80000084:	00000713          	li	a4,0
    80000088:	00000793          	li	a5,0
    8000008c:	00000813          	li	a6,0
    80000090:	00000893          	li	a7,0
    80000094:	00000913          	li	s2,0
    80000098:	00000993          	li	s3,0
    8000009c:	00000a13          	li	s4,0
    800000a0:	00000a93          	li	s5,0
    800000a4:	00000b13          	li	s6,0
    800000a8:	00000b93          	li	s7,0
    800000ac:	00000c13          	li	s8,0
    800000b0:	00000c93          	li	s9,0
    800000b4:	00000d13          	li	s10,0
    800000b8:	00000d93          	li	s11,0
    800000bc:	00000e13          	li	t3,0
    800000c0:	00000e93          	li	t4,0
    800000c4:	00000f13          	li	t5,0
    800000c8:	00000f93          	li	t6,0
    800000cc:	f1402573          	csrr	a0,mhartid
    800000d0:	00051063          	bnez	a0,800000d0 <reset_vector+0x80>
    800000d4:	00000297          	auipc	t0,0x0
    800000d8:	01028293          	addi	t0,t0,16 # 800000e4 <reset_vector+0x94>
    800000dc:	30529073          	csrw	mtvec,t0
    800000e0:	74445073          	csrwi	0x744,8
    800000e4:	00000297          	auipc	t0,0x0
    800000e8:	01028293          	addi	t0,t0,16 # 800000f4 <reset_vector+0xa4>
    800000ec:	30529073          	csrw	mtvec,t0
    800000f0:	18005073          	csrwi	satp,0
    800000f4:	00000297          	auipc	t0,0x0
    800000f8:	02428293          	addi	t0,t0,36 # 80000118 <reset_vector+0xc8>
    800000fc:	30529073          	csrw	mtvec,t0
    80000100:	0010029b          	addiw	t0,zero,1
    80000104:	03529293          	slli	t0,t0,0x35
    80000108:	fff28293          	addi	t0,t0,-1
    8000010c:	3b029073          	csrw	pmpaddr0,t0
    80000110:	01f00293          	li	t0,31
    80000114:	3a029073          	csrw	pmpcfg0,t0
    80000118:	30405073          	csrwi	mie,0
    8000011c:	00000297          	auipc	t0,0x0
    80000120:	01428293          	addi	t0,t0,20 # 80000130 <reset_vector+0xe0>
    80000124:	30529073          	csrw	mtvec,t0
    80000128:	30205073          	csrwi	medeleg,0
    8000012c:	30305073          	csrwi	mideleg,0
    80000130:	00000193          	li	gp,0
    80000134:	00000297          	auipc	t0,0x0
    80000138:	ed028293          	addi	t0,t0,-304 # 80000004 <trap_vector>
    8000013c:	30529073          	csrw	mtvec,t0
    80000140:	00100513          	li	a0,1
    80000144:	01f51513          	slli	a0,a0,0x1f
    80000148:	00055c63          	bgez	a0,80000160 <reset_vector+0x110>
    8000014c:	0ff0000f          	fence
    80000150:	00100193          	li	gp,1
    80000154:	05d00893          	li	a7,93
    80000158:	00000513          	li	a0,0
    8000015c:	00000073          	ecall
    80000160:	00000293          	li	t0,0
    80000164:	00028a63          	beqz	t0,80000178 <reset_vector+0x128>
    80000168:	10529073          	csrw	stvec,t0
    8000016c:	0000b2b7          	lui	t0,0xb
    80000170:	1092829b          	addiw	t0,t0,265 # b109 <_start-0x7fff4ef7>
    80000174:	30229073          	csrw	medeleg,t0
    80000178:	30005073          	csrwi	mstatus,0
    8000017c:	00000297          	auipc	t0,0x0
    80000180:	01428293          	addi	t0,t0,20 # 80000190 <test_2>
    80000184:	34129073          	csrw	mepc,t0
    80000188:	f1402573          	csrr	a0,mhartid
    8000018c:	30200073          	mret

0000000080000190 <test_2>:
    80000190:	00200193          	li	gp,2
    80000194:	0ff00793          	li	a5,255
    80000198:	00002117          	auipc	sp,0x2
    8000019c:	e6810113          	addi	sp,sp,-408 # 80002000 <begin_signature>
    800001a0:	00011703          	lh	a4,0(sp)
    800001a4:	0ff00393          	li	t2,255
    800001a8:	28771263          	bne	a4,t2,8000042c <fail>

00000000800001ac <test_3>:
    800001ac:	00300193          	li	gp,3
    800001b0:	f0000793          	li	a5,-256
    800001b4:	00002117          	auipc	sp,0x2
    800001b8:	e4c10113          	addi	sp,sp,-436 # 80002000 <begin_signature>
    800001bc:	00211703          	lh	a4,2(sp)
    800001c0:	f0000393          	li	t2,-256
    800001c4:	26771463          	bne	a4,t2,8000042c <fail>

00000000800001c8 <test_4>:
    800001c8:	00400193          	li	gp,4
    800001cc:	000017b7          	lui	a5,0x1
    800001d0:	ff07879b          	addiw	a5,a5,-16 # ff0 <_start-0x7ffff010>
    800001d4:	00002117          	auipc	sp,0x2
    800001d8:	e2c10113          	addi	sp,sp,-468 # 80002000 <begin_signature>
    800001dc:	00411703          	lh	a4,4(sp)
    800001e0:	000013b7          	lui	t2,0x1
    800001e4:	ff03839b          	addiw	t2,t2,-16 # ff0 <_start-0x7ffff010>
    800001e8:	24771263          	bne	a4,t2,8000042c <fail>

00000000800001ec <test_5>:
    800001ec:	00500193          	li	gp,5
    800001f0:	fffff7b7          	lui	a5,0xfffff
    800001f4:	00f7879b          	addiw	a5,a5,15 # fffffffffffff00f <_end+0xffffffff7fffcfff>
    800001f8:	00002117          	auipc	sp,0x2
    800001fc:	e0810113          	addi	sp,sp,-504 # 80002000 <begin_signature>
    80000200:	00611703          	lh	a4,6(sp)
    80000204:	fffff3b7          	lui	t2,0xfffff
    80000208:	00f3839b          	addiw	t2,t2,15 # fffffffffffff00f <_end+0xffffffff7fffcfff>
    8000020c:	22771063          	bne	a4,t2,8000042c <fail>

0000000080000210 <test_6>:
    80000210:	00600193          	li	gp,6
    80000214:	0ff00793          	li	a5,255
    80000218:	00002117          	auipc	sp,0x2
    8000021c:	dee10113          	addi	sp,sp,-530 # 80002006 <tdat4>
    80000220:	ffa11703          	lh	a4,-6(sp)
    80000224:	0ff00393          	li	t2,255
    80000228:	20771263          	bne	a4,t2,8000042c <fail>

000000008000022c <test_7>:
    8000022c:	00700193          	li	gp,7
    80000230:	f0000793          	li	a5,-256
    80000234:	00002117          	auipc	sp,0x2
    80000238:	dd210113          	addi	sp,sp,-558 # 80002006 <tdat4>
    8000023c:	ffc11703          	lh	a4,-4(sp)
    80000240:	f0000393          	li	t2,-256
    80000244:	1e771463          	bne	a4,t2,8000042c <fail>

0000000080000248 <test_8>:
    80000248:	00800193          	li	gp,8
    8000024c:	000017b7          	lui	a5,0x1
    80000250:	ff07879b          	addiw	a5,a5,-16 # ff0 <_start-0x7ffff010>
    80000254:	00002117          	auipc	sp,0x2
    80000258:	db210113          	addi	sp,sp,-590 # 80002006 <tdat4>
    8000025c:	ffe11703          	lh	a4,-2(sp)
    80000260:	000013b7          	lui	t2,0x1
    80000264:	ff03839b          	addiw	t2,t2,-16 # ff0 <_start-0x7ffff010>
    80000268:	1c771263          	bne	a4,t2,8000042c <fail>

000000008000026c <test_9>:
    8000026c:	00900193          	li	gp,9
    80000270:	fffff7b7          	lui	a5,0xfffff
    80000274:	00f7879b          	addiw	a5,a5,15 # fffffffffffff00f <_end+0xffffffff7fffcfff>
    80000278:	00002117          	auipc	sp,0x2
    8000027c:	d8e10113          	addi	sp,sp,-626 # 80002006 <tdat4>
    80000280:	00011703          	lh	a4,0(sp)
    80000284:	fffff3b7          	lui	t2,0xfffff
    80000288:	00f3839b          	addiw	t2,t2,15 # fffffffffffff00f <_end+0xffffffff7fffcfff>
    8000028c:	1a771063          	bne	a4,t2,8000042c <fail>

0000000080000290 <test_10>:
    80000290:	00a00193          	li	gp,10
    80000294:	00002097          	auipc	ra,0x2
    80000298:	d6c08093          	addi	ra,ra,-660 # 80002000 <begin_signature>
    8000029c:	fe008093          	addi	ra,ra,-32
    800002a0:	02009283          	lh	t0,32(ra)
    800002a4:	0ff00393          	li	t2,255
    800002a8:	18729263          	bne	t0,t2,8000042c <fail>

00000000800002ac <test_11>:
    800002ac:	00b00193          	li	gp,11
    800002b0:	00002097          	auipc	ra,0x2
    800002b4:	d5008093          	addi	ra,ra,-688 # 80002000 <begin_signature>
    800002b8:	ffb08093          	addi	ra,ra,-5
    800002bc:	00709283          	lh	t0,7(ra)
    800002c0:	f0000393          	li	t2,-256
    800002c4:	16729463          	bne	t0,t2,8000042c <fail>

00000000800002c8 <test_12>:
    800002c8:	00c00193          	li	gp,12
    800002cc:	00000213          	li	tp,0
    800002d0:	00002697          	auipc	a3,0x2
    800002d4:	d3268693          	addi	a3,a3,-718 # 80002002 <tdat2>
    800002d8:	00269703          	lh	a4,2(a3)
    800002dc:	00070313          	mv	t1,a4
    800002e0:	000013b7          	lui	t2,0x1
    800002e4:	ff03839b          	addiw	t2,t2,-16 # ff0 <_start-0x7ffff010>
    800002e8:	14731263          	bne	t1,t2,8000042c <fail>
    800002ec:	00120213          	addi	tp,tp,1 # 1 <_start-0x7fffffff>
    800002f0:	00200293          	li	t0,2
    800002f4:	fc521ee3          	bne	tp,t0,800002d0 <test_12+0x8>

00000000800002f8 <test_13>:
    800002f8:	00d00193          	li	gp,13
    800002fc:	00000213          	li	tp,0
    80000300:	00002697          	auipc	a3,0x2
    80000304:	d0468693          	addi	a3,a3,-764 # 80002004 <tdat3>
    80000308:	00269703          	lh	a4,2(a3)
    8000030c:	00000013          	nop
    80000310:	00070313          	mv	t1,a4
    80000314:	fffff3b7          	lui	t2,0xfffff
    80000318:	00f3839b          	addiw	t2,t2,15 # fffffffffffff00f <_end+0xffffffff7fffcfff>
    8000031c:	10731863          	bne	t1,t2,8000042c <fail>
    80000320:	00120213          	addi	tp,tp,1 # 1 <_start-0x7fffffff>
    80000324:	00200293          	li	t0,2
    80000328:	fc521ce3          	bne	tp,t0,80000300 <test_13+0x8>

000000008000032c <test_14>:
    8000032c:	00e00193          	li	gp,14
    80000330:	00000213          	li	tp,0
    80000334:	00002697          	auipc	a3,0x2
    80000338:	ccc68693          	addi	a3,a3,-820 # 80002000 <begin_signature>
    8000033c:	00269703          	lh	a4,2(a3)
    80000340:	00000013          	nop
    80000344:	00000013          	nop
    80000348:	00070313          	mv	t1,a4
    8000034c:	f0000393          	li	t2,-256
    80000350:	0c731e63          	bne	t1,t2,8000042c <fail>
    80000354:	00120213          	addi	tp,tp,1 # 1 <_start-0x7fffffff>
    80000358:	00200293          	li	t0,2
    8000035c:	fc521ce3          	bne	tp,t0,80000334 <test_14+0x8>

0000000080000360 <test_15>:
    80000360:	00f00193          	li	gp,15
    80000364:	00000213          	li	tp,0
    80000368:	00002697          	auipc	a3,0x2
    8000036c:	c9a68693          	addi	a3,a3,-870 # 80002002 <tdat2>
    80000370:	00269703          	lh	a4,2(a3)
    80000374:	000013b7          	lui	t2,0x1
    80000378:	ff03839b          	addiw	t2,t2,-16 # ff0 <_start-0x7ffff010>
    8000037c:	0a771863          	bne	a4,t2,8000042c <fail>
    80000380:	00120213          	addi	tp,tp,1 # 1 <_start-0x7fffffff>
    80000384:	00200293          	li	t0,2
    80000388:	fe5210e3          	bne	tp,t0,80000368 <test_15+0x8>

000000008000038c <test_16>:
    8000038c:	01000193          	li	gp,16
    80000390:	00000213          	li	tp,0
    80000394:	00002697          	auipc	a3,0x2
    80000398:	c7068693          	addi	a3,a3,-912 # 80002004 <tdat3>
    8000039c:	00000013          	nop
    800003a0:	00269703          	lh	a4,2(a3)
    800003a4:	fffff3b7          	lui	t2,0xfffff
    800003a8:	00f3839b          	addiw	t2,t2,15 # fffffffffffff00f <_end+0xffffffff7fffcfff>
    800003ac:	08771063          	bne	a4,t2,8000042c <fail>
    800003b0:	00120213          	addi	tp,tp,1 # 1 <_start-0x7fffffff>
    800003b4:	00200293          	li	t0,2
    800003b8:	fc521ee3          	bne	tp,t0,80000394 <test_16+0x8>

00000000800003bc <test_17>:
    800003bc:	01100193          	li	gp,17
    800003c0:	00000213          	li	tp,0
    800003c4:	00002697          	auipc	a3,0x2
    800003c8:	c3c68693          	addi	a3,a3,-964 # 80002000 <begin_signature>
    800003cc:	00000013          	nop
    800003d0:	00000013          	nop
    800003d4:	00269703          	lh	a4,2(a3)
    800003d8:	f0000393          	li	t2,-256
    800003dc:	04771863          	bne	a4,t2,8000042c <fail>
    800003e0:	00120213          	addi	tp,tp,1 # 1 <_start-0x7fffffff>
    800003e4:	00200293          	li	t0,2
    800003e8:	fc521ee3          	bne	tp,t0,800003c4 <test_17+0x8>

00000000800003ec <test_18>:
    800003ec:	01200193          	li	gp,18
    800003f0:	00002297          	auipc	t0,0x2
    800003f4:	c1028293          	addi	t0,t0,-1008 # 80002000 <begin_signature>
    800003f8:	00029103          	lh	sp,0(t0)
    800003fc:	00200113          	li	sp,2
    80000400:	00200393          	li	t2,2
    80000404:	02711463          	bne	sp,t2,8000042c <fail>

0000000080000408 <test_19>:
    80000408:	01300193          	li	gp,19
    8000040c:	00002297          	auipc	t0,0x2
    80000410:	bf428293          	addi	t0,t0,-1036 # 80002000 <begin_signature>
    80000414:	00029103          	lh	sp,0(t0)
    80000418:	00000013          	nop
    8000041c:	00200113          	li	sp,2
    80000420:	00200393          	li	t2,2
    80000424:	00711463          	bne	sp,t2,8000042c <fail>
    80000428:	02301063          	bne	zero,gp,80000448 <pass>

000000008000042c <fail>:
    8000042c:	0ff0000f          	fence
    80000430:	00018063          	beqz	gp,80000430 <fail+0x4>
    80000434:	00119193          	slli	gp,gp,0x1
    80000438:	0011e193          	ori	gp,gp,1
    8000043c:	05d00893          	li	a7,93
    80000440:	00018513          	mv	a0,gp
    80000444:	00000073          	ecall

0000000080000448 <pass>:
    80000448:	0ff0000f          	fence
    8000044c:	00100193          	li	gp,1
    80000450:	05d00893          	li	a7,93
    80000454:	00000513          	li	a0,0
    80000458:	00000073          	ecall
    8000045c:	c0001073          	unimp
    80000460:	0000                	.insn	2, 0x
    80000462:	0000                	.insn	2, 0x
    80000464:	0000                	.insn	2, 0x
    80000466:	0000                	.insn	2, 0x
    80000468:	0000                	.insn	2, 0x
    8000046a:	0000                	.insn	2, 0x
    8000046c:	0000                	.insn	2, 0x
    8000046e:	0000                	.insn	2, 0x
    80000470:	0000                	.insn	2, 0x
    80000472:	0000                	.insn	2, 0x
    80000474:	0000                	.insn	2, 0x
    80000476:	0000                	.insn	2, 0x
    80000478:	0000                	.insn	2, 0x
    8000047a:	0000                	.insn	2, 0x
