
rv64ui-p-sd:     file format elf64-littleriscv


Disassembly of section .text.init:

0000000080000000 <_start>:
    80000000:	0500006f          	j	80000050 <reset_vector>

0000000080000004 <trap_vector>:
    80000004:	34202f73          	csrr	t5,mcause
    80000008:	00800f93          	li	t6,8
    8000000c:	03ff0863          	beq	t5,t6,8000003c <write_tohost>
    80000010:	00900f93          	li	t6,9
    80000014:	03ff0463          	beq	t5,t6,8000003c <write_tohost>
    80000018:	00b00f93          	li	t6,11
    8000001c:	03ff0063          	beq	t5,t6,8000003c <write_tohost>
    80000020:	00000f13          	li	t5,0
    80000024:	000f0463          	beqz	t5,8000002c <trap_vector+0x28>
    80000028:	000f0067          	jr	t5
    8000002c:	34202f73          	csrr	t5,mcause
    80000030:	000f5463          	bgez	t5,80000038 <handle_exception>
    80000034:	0040006f          	j	80000038 <handle_exception>

0000000080000038 <handle_exception>:
    80000038:	5391e193          	ori	gp,gp,1337

000000008000003c <write_tohost>:
    8000003c:	00001f17          	auipc	t5,0x1
    80000040:	fc3f2223          	sw	gp,-60(t5) # 80001000 <tohost>
    80000044:	00001f17          	auipc	t5,0x1
    80000048:	fc0f2023          	sw	zero,-64(t5) # 80001004 <tohost+0x4>
    8000004c:	ff1ff06f          	j	8000003c <write_tohost>

0000000080000050 <reset_vector>:
    80000050:	00000093          	li	ra,0
    80000054:	00000113          	li	sp,0
    80000058:	00000193          	li	gp,0
    8000005c:	00000213          	li	tp,0
    80000060:	00000293          	li	t0,0
    80000064:	00000313          	li	t1,0
    80000068:	00000393          	li	t2,0
    8000006c:	00000413          	li	s0,0
    80000070:	00000493          	li	s1,0
    80000074:	00000513          	li	a0,0
    80000078:	00000593          	li	a1,0
    8000007c:	00000613          	li	a2,0
    80000080:	00000693          	li	a3,0
    80000084:	00000713          	li	a4,0
    80000088:	00000793          	li	a5,0
    8000008c:	00000813          	li	a6,0
    80000090:	00000893          	li	a7,0
    80000094:	00000913          	li	s2,0
    80000098:	00000993          	li	s3,0
    8000009c:	00000a13          	li	s4,0
    800000a0:	00000a93          	li	s5,0
    800000a4:	00000b13          	li	s6,0
    800000a8:	00000b93          	li	s7,0
    800000ac:	00000c13          	li	s8,0
    800000b0:	00000c93          	li	s9,0
    800000b4:	00000d13          	li	s10,0
    800000b8:	00000d93          	li	s11,0
    800000bc:	00000e13          	li	t3,0
    800000c0:	00000e93          	li	t4,0
    800000c4:	00000f13          	li	t5,0
    800000c8:	00000f93          	li	t6,0
    800000cc:	f1402573          	csrr	a0,mhartid
    800000d0:	00051063          	bnez	a0,800000d0 <reset_vector+0x80>
    800000d4:	00000297          	auipc	t0,0x0
    800000d8:	01028293          	addi	t0,t0,16 # 800000e4 <reset_vector+0x94>
    800000dc:	30529073          	csrw	mtvec,t0
    800000e0:	74445073          	csrwi	0x744,8
    800000e4:	00000297          	auipc	t0,0x0
    800000e8:	01028293          	addi	t0,t0,16 # 800000f4 <reset_vector+0xa4>
    800000ec:	30529073          	csrw	mtvec,t0
    800000f0:	18005073          	csrwi	satp,0
    800000f4:	00000297          	auipc	t0,0x0
    800000f8:	02428293          	addi	t0,t0,36 # 80000118 <reset_vector+0xc8>
    800000fc:	30529073          	csrw	mtvec,t0
    80000100:	0010029b          	addiw	t0,zero,1
    80000104:	03529293          	slli	t0,t0,0x35
    80000108:	fff28293          	addi	t0,t0,-1
    8000010c:	3b029073          	csrw	pmpaddr0,t0
    80000110:	01f00293          	li	t0,31
    80000114:	3a029073          	csrw	pmpcfg0,t0
    80000118:	30405073          	csrwi	mie,0
    8000011c:	00000297          	auipc	t0,0x0
    80000120:	01428293          	addi	t0,t0,20 # 80000130 <reset_vector+0xe0>
    80000124:	30529073          	csrw	mtvec,t0
    80000128:	30205073          	csrwi	medeleg,0
    8000012c:	30305073          	csrwi	mideleg,0
    80000130:	00000193          	li	gp,0
    80000134:	00000297          	auipc	t0,0x0
    80000138:	ed028293          	addi	t0,t0,-304 # 80000004 <trap_vector>
    8000013c:	30529073          	csrw	mtvec,t0
    80000140:	00100513          	li	a0,1
    80000144:	01f51513          	slli	a0,a0,0x1f
    80000148:	00055c63          	bgez	a0,80000160 <reset_vector+0x110>
    8000014c:	0ff0000f          	fence
    80000150:	00100193          	li	gp,1
    80000154:	05d00893          	li	a7,93
    80000158:	00000513          	li	a0,0
    8000015c:	00000073          	ecall
    80000160:	00000293          	li	t0,0
    80000164:	00028a63          	beqz	t0,80000178 <reset_vector+0x128>
    80000168:	10529073          	csrw	stvec,t0
    8000016c:	0000b2b7          	lui	t0,0xb
    80000170:	1092829b          	addiw	t0,t0,265 # b109 <_start-0x7fff4ef7>
    80000174:	30229073          	csrw	medeleg,t0
    80000178:	30005073          	csrwi	mstatus,0
    8000017c:	00000297          	auipc	t0,0x0
    80000180:	01428293          	addi	t0,t0,20 # 80000190 <test_2>
    80000184:	34129073          	csrw	mepc,t0
    80000188:	f1402573          	csrr	a0,mhartid
    8000018c:	30200073          	mret

0000000080000190 <test_2>:
    80000190:	00200193          	li	gp,2
    80000194:	00002117          	auipc	sp,0x2
    80000198:	e6c10113          	addi	sp,sp,-404 # 80002000 <begin_signature>
    8000019c:	005500b7          	lui	ra,0x550
    800001a0:	0550809b          	addiw	ra,ra,85 # 550055 <_start-0x7faaffab>
    800001a4:	01009093          	slli	ra,ra,0x10
    800001a8:	05508093          	addi	ra,ra,85
    800001ac:	01109093          	slli	ra,ra,0x11
    800001b0:	0aa08093          	addi	ra,ra,170
    800001b4:	00000797          	auipc	a5,0x0
    800001b8:	01478793          	addi	a5,a5,20 # 800001c8 <test_2+0x38>
    800001bc:	00113023          	sd	ra,0(sp)
    800001c0:	00013703          	ld	a4,0(sp)
    800001c4:	0080006f          	j	800001cc <test_2+0x3c>
    800001c8:	00008713          	mv	a4,ra
    800001cc:	005503b7          	lui	t2,0x550
    800001d0:	0553839b          	addiw	t2,t2,85 # 550055 <_start-0x7faaffab>
    800001d4:	01039393          	slli	t2,t2,0x10
    800001d8:	05538393          	addi	t2,t2,85
    800001dc:	01139393          	slli	t2,t2,0x11
    800001e0:	0aa38393          	addi	t2,t2,170
    800001e4:	66771863          	bne	a4,t2,80000854 <fail>

00000000800001e8 <test_3>:
    800001e8:	00300193          	li	gp,3
    800001ec:	00002117          	auipc	sp,0x2
    800001f0:	e1410113          	addi	sp,sp,-492 # 80002000 <begin_signature>
    800001f4:	ffd500b7          	lui	ra,0xffd50
    800001f8:	0550809b          	addiw	ra,ra,85 # ffffffffffd50055 <_end+0xffffffff7fd4e005>
    800001fc:	01009093          	slli	ra,ra,0x10
    80000200:	05508093          	addi	ra,ra,85
    80000204:	00d09093          	slli	ra,ra,0xd
    80000208:	00b08093          	addi	ra,ra,11
    8000020c:	00c09093          	slli	ra,ra,0xc
    80000210:	a0008093          	addi	ra,ra,-1536
    80000214:	00000797          	auipc	a5,0x0
    80000218:	01478793          	addi	a5,a5,20 # 80000228 <test_3+0x40>
    8000021c:	00113423          	sd	ra,8(sp)
    80000220:	00813703          	ld	a4,8(sp)
    80000224:	0080006f          	j	8000022c <test_3+0x44>
    80000228:	00008713          	mv	a4,ra
    8000022c:	ffd503b7          	lui	t2,0xffd50
    80000230:	0553839b          	addiw	t2,t2,85 # ffffffffffd50055 <_end+0xffffffff7fd4e005>
    80000234:	01039393          	slli	t2,t2,0x10
    80000238:	05538393          	addi	t2,t2,85
    8000023c:	00d39393          	slli	t2,t2,0xd
    80000240:	00b38393          	addi	t2,t2,11
    80000244:	00c39393          	slli	t2,t2,0xc
    80000248:	a0038393          	addi	t2,t2,-1536
    8000024c:	60771463          	bne	a4,t2,80000854 <fail>

0000000080000250 <test_4>:
    80000250:	00400193          	li	gp,4
    80000254:	00002117          	auipc	sp,0x2
    80000258:	dac10113          	addi	sp,sp,-596 # 80002000 <begin_signature>
    8000025c:	005500b7          	lui	ra,0x550
    80000260:	0550809b          	addiw	ra,ra,85 # 550055 <_start-0x7faaffab>
    80000264:	00d09093          	slli	ra,ra,0xd
    80000268:	00b08093          	addi	ra,ra,11
    8000026c:	00c09093          	slli	ra,ra,0xc
    80000270:	a0108093          	addi	ra,ra,-1535
    80000274:	00c09093          	slli	ra,ra,0xc
    80000278:	aa008093          	addi	ra,ra,-1376
    8000027c:	00000797          	auipc	a5,0x0
    80000280:	01478793          	addi	a5,a5,20 # 80000290 <test_4+0x40>
    80000284:	00113823          	sd	ra,16(sp)
    80000288:	01013703          	ld	a4,16(sp)
    8000028c:	0080006f          	j	80000294 <test_4+0x44>
    80000290:	00008713          	mv	a4,ra
    80000294:	005503b7          	lui	t2,0x550
    80000298:	0553839b          	addiw	t2,t2,85 # 550055 <_start-0x7faaffab>
    8000029c:	00d39393          	slli	t2,t2,0xd
    800002a0:	00b38393          	addi	t2,t2,11
    800002a4:	00c39393          	slli	t2,t2,0xc
    800002a8:	a0138393          	addi	t2,t2,-1535
    800002ac:	00c39393          	slli	t2,t2,0xc
    800002b0:	aa038393          	addi	t2,t2,-1376
    800002b4:	5a771063          	bne	a4,t2,80000854 <fail>

00000000800002b8 <test_5>:
    800002b8:	00500193          	li	gp,5
    800002bc:	00002117          	auipc	sp,0x2
    800002c0:	d4410113          	addi	sp,sp,-700 # 80002000 <begin_signature>
    800002c4:	fffd00b7          	lui	ra,0xfffd0
    800002c8:	0550809b          	addiw	ra,ra,85 # fffffffffffd0055 <_end+0xffffffff7ffce005>
    800002cc:	01009093          	slli	ra,ra,0x10
    800002d0:	05508093          	addi	ra,ra,85
    800002d4:	01009093          	slli	ra,ra,0x10
    800002d8:	05508093          	addi	ra,ra,85
    800002dc:	00d09093          	slli	ra,ra,0xd
    800002e0:	00a08093          	addi	ra,ra,10
    800002e4:	00000797          	auipc	a5,0x0
    800002e8:	01478793          	addi	a5,a5,20 # 800002f8 <test_5+0x40>
    800002ec:	00113c23          	sd	ra,24(sp)
    800002f0:	01813703          	ld	a4,24(sp)
    800002f4:	0080006f          	j	800002fc <test_5+0x44>
    800002f8:	00008713          	mv	a4,ra
    800002fc:	fffd03b7          	lui	t2,0xfffd0
    80000300:	0553839b          	addiw	t2,t2,85 # fffffffffffd0055 <_end+0xffffffff7ffce005>
    80000304:	01039393          	slli	t2,t2,0x10
    80000308:	05538393          	addi	t2,t2,85
    8000030c:	01039393          	slli	t2,t2,0x10
    80000310:	05538393          	addi	t2,t2,85
    80000314:	00d39393          	slli	t2,t2,0xd
    80000318:	00a38393          	addi	t2,t2,10
    8000031c:	52771c63          	bne	a4,t2,80000854 <fail>

0000000080000320 <test_6>:
    80000320:	00600193          	li	gp,6
    80000324:	00002117          	auipc	sp,0x2
    80000328:	d1410113          	addi	sp,sp,-748 # 80002038 <tdat8>
    8000032c:	005500b7          	lui	ra,0x550
    80000330:	0550809b          	addiw	ra,ra,85 # 550055 <_start-0x7faaffab>
    80000334:	01009093          	slli	ra,ra,0x10
    80000338:	05508093          	addi	ra,ra,85
    8000033c:	01109093          	slli	ra,ra,0x11
    80000340:	0aa08093          	addi	ra,ra,170
    80000344:	00000797          	auipc	a5,0x0
    80000348:	01478793          	addi	a5,a5,20 # 80000358 <test_6+0x38>
    8000034c:	fe113423          	sd	ra,-24(sp)
    80000350:	fe813703          	ld	a4,-24(sp)
    80000354:	0080006f          	j	8000035c <test_6+0x3c>
    80000358:	00008713          	mv	a4,ra
    8000035c:	005503b7          	lui	t2,0x550
    80000360:	0553839b          	addiw	t2,t2,85 # 550055 <_start-0x7faaffab>
    80000364:	01039393          	slli	t2,t2,0x10
    80000368:	05538393          	addi	t2,t2,85
    8000036c:	01139393          	slli	t2,t2,0x11
    80000370:	0aa38393          	addi	t2,t2,170
    80000374:	4e771063          	bne	a4,t2,80000854 <fail>

0000000080000378 <test_7>:
    80000378:	00700193          	li	gp,7
    8000037c:	00002117          	auipc	sp,0x2
    80000380:	cbc10113          	addi	sp,sp,-836 # 80002038 <tdat8>
    80000384:	ffd500b7          	lui	ra,0xffd50
    80000388:	0550809b          	addiw	ra,ra,85 # ffffffffffd50055 <_end+0xffffffff7fd4e005>
    8000038c:	01009093          	slli	ra,ra,0x10
    80000390:	05508093          	addi	ra,ra,85
    80000394:	00d09093          	slli	ra,ra,0xd
    80000398:	00b08093          	addi	ra,ra,11
    8000039c:	00c09093          	slli	ra,ra,0xc
    800003a0:	a0008093          	addi	ra,ra,-1536
    800003a4:	00000797          	auipc	a5,0x0
    800003a8:	01478793          	addi	a5,a5,20 # 800003b8 <test_7+0x40>
    800003ac:	fe113823          	sd	ra,-16(sp)
    800003b0:	ff013703          	ld	a4,-16(sp)
    800003b4:	0080006f          	j	800003bc <test_7+0x44>
    800003b8:	00008713          	mv	a4,ra
    800003bc:	ffd503b7          	lui	t2,0xffd50
    800003c0:	0553839b          	addiw	t2,t2,85 # ffffffffffd50055 <_end+0xffffffff7fd4e005>
    800003c4:	01039393          	slli	t2,t2,0x10
    800003c8:	05538393          	addi	t2,t2,85
    800003cc:	00d39393          	slli	t2,t2,0xd
    800003d0:	00b38393          	addi	t2,t2,11
    800003d4:	00c39393          	slli	t2,t2,0xc
    800003d8:	a0038393          	addi	t2,t2,-1536
    800003dc:	46771c63          	bne	a4,t2,80000854 <fail>

00000000800003e0 <test_8>:
    800003e0:	00800193          	li	gp,8
    800003e4:	00002117          	auipc	sp,0x2
    800003e8:	c5410113          	addi	sp,sp,-940 # 80002038 <tdat8>
    800003ec:	005500b7          	lui	ra,0x550
    800003f0:	0550809b          	addiw	ra,ra,85 # 550055 <_start-0x7faaffab>
    800003f4:	00d09093          	slli	ra,ra,0xd
    800003f8:	00b08093          	addi	ra,ra,11
    800003fc:	00c09093          	slli	ra,ra,0xc
    80000400:	a0108093          	addi	ra,ra,-1535
    80000404:	00c09093          	slli	ra,ra,0xc
    80000408:	aa008093          	addi	ra,ra,-1376
    8000040c:	00000797          	auipc	a5,0x0
    80000410:	01478793          	addi	a5,a5,20 # 80000420 <test_8+0x40>
    80000414:	fe113c23          	sd	ra,-8(sp)
    80000418:	ff813703          	ld	a4,-8(sp)
    8000041c:	0080006f          	j	80000424 <test_8+0x44>
    80000420:	00008713          	mv	a4,ra
    80000424:	005503b7          	lui	t2,0x550
    80000428:	0553839b          	addiw	t2,t2,85 # 550055 <_start-0x7faaffab>
    8000042c:	00d39393          	slli	t2,t2,0xd
    80000430:	00b38393          	addi	t2,t2,11
    80000434:	00c39393          	slli	t2,t2,0xc
    80000438:	a0138393          	addi	t2,t2,-1535
    8000043c:	00c39393          	slli	t2,t2,0xc
    80000440:	aa038393          	addi	t2,t2,-1376
    80000444:	40771863          	bne	a4,t2,80000854 <fail>

0000000080000448 <test_9>:
    80000448:	00900193          	li	gp,9
    8000044c:	00002117          	auipc	sp,0x2
    80000450:	bec10113          	addi	sp,sp,-1044 # 80002038 <tdat8>
    80000454:	fffd00b7          	lui	ra,0xfffd0
    80000458:	0550809b          	addiw	ra,ra,85 # fffffffffffd0055 <_end+0xffffffff7ffce005>
    8000045c:	01009093          	slli	ra,ra,0x10
    80000460:	05508093          	addi	ra,ra,85
    80000464:	01009093          	slli	ra,ra,0x10
    80000468:	05508093          	addi	ra,ra,85
    8000046c:	00d09093          	slli	ra,ra,0xd
    80000470:	00a08093          	addi	ra,ra,10
    80000474:	00000797          	auipc	a5,0x0
    80000478:	01478793          	addi	a5,a5,20 # 80000488 <test_9+0x40>
    8000047c:	00113023          	sd	ra,0(sp)
    80000480:	00013703          	ld	a4,0(sp)
    80000484:	0080006f          	j	8000048c <test_9+0x44>
    80000488:	00008713          	mv	a4,ra
    8000048c:	fffd03b7          	lui	t2,0xfffd0
    80000490:	0553839b          	addiw	t2,t2,85 # fffffffffffd0055 <_end+0xffffffff7ffce005>
    80000494:	01039393          	slli	t2,t2,0x10
    80000498:	05538393          	addi	t2,t2,85
    8000049c:	01039393          	slli	t2,t2,0x10
    800004a0:	05538393          	addi	t2,t2,85
    800004a4:	00d39393          	slli	t2,t2,0xd
    800004a8:	00a38393          	addi	t2,t2,10
    800004ac:	3a771463          	bne	a4,t2,80000854 <fail>

00000000800004b0 <test_10>:
    800004b0:	00a00193          	li	gp,10
    800004b4:	00002097          	auipc	ra,0x2
    800004b8:	b8c08093          	addi	ra,ra,-1140 # 80002040 <tdat9>
    800004bc:	00247137          	lui	sp,0x247
    800004c0:	8ad1011b          	addiw	sp,sp,-1875 # 2468ad <_start-0x7fdb9753>
    800004c4:	00e11113          	slli	sp,sp,0xe
    800004c8:	c0910113          	addi	sp,sp,-1015
    800004cc:	00d11113          	slli	sp,sp,0xd
    800004d0:	34510113          	addi	sp,sp,837
    800004d4:	00c11113          	slli	sp,sp,0xc
    800004d8:	67810113          	addi	sp,sp,1656
    800004dc:	fe008213          	addi	tp,ra,-32
    800004e0:	02223023          	sd	sp,32(tp) # 20 <_start-0x7fffffe0>
    800004e4:	0000b283          	ld	t0,0(ra)
    800004e8:	002473b7          	lui	t2,0x247
    800004ec:	8ad3839b          	addiw	t2,t2,-1875 # 2468ad <_start-0x7fdb9753>
    800004f0:	00e39393          	slli	t2,t2,0xe
    800004f4:	c0938393          	addi	t2,t2,-1015
    800004f8:	00d39393          	slli	t2,t2,0xd
    800004fc:	34538393          	addi	t2,t2,837
    80000500:	00c39393          	slli	t2,t2,0xc
    80000504:	67838393          	addi	t2,t2,1656
    80000508:	34729663          	bne	t0,t2,80000854 <fail>

000000008000050c <test_11>:
    8000050c:	00b00193          	li	gp,11
    80000510:	00002097          	auipc	ra,0x2
    80000514:	b3008093          	addi	ra,ra,-1232 # 80002040 <tdat9>
    80000518:	00b04137          	lui	sp,0xb04
    8000051c:	2611011b          	addiw	sp,sp,609 # b04261 <_start-0x7f4fbd9f>
    80000520:	00c11113          	slli	sp,sp,0xc
    80000524:	30b10113          	addi	sp,sp,779
    80000528:	00f11113          	slli	sp,sp,0xf
    8000052c:	21310113          	addi	sp,sp,531
    80000530:	00c11113          	slli	sp,sp,0xc
    80000534:	09810113          	addi	sp,sp,152
    80000538:	ffd08093          	addi	ra,ra,-3
    8000053c:	0020b5a3          	sd	sp,11(ra)
    80000540:	00002217          	auipc	tp,0x2
    80000544:	b0820213          	addi	tp,tp,-1272 # 80002048 <tdat10>
    80000548:	00023283          	ld	t0,0(tp) # 0 <_start-0x80000000>
    8000054c:	00b043b7          	lui	t2,0xb04
    80000550:	2613839b          	addiw	t2,t2,609 # b04261 <_start-0x7f4fbd9f>
    80000554:	00c39393          	slli	t2,t2,0xc
    80000558:	30b38393          	addi	t2,t2,779
    8000055c:	00f39393          	slli	t2,t2,0xf
    80000560:	21338393          	addi	t2,t2,531
    80000564:	00c39393          	slli	t2,t2,0xc
    80000568:	09838393          	addi	t2,t2,152
    8000056c:	2e729463          	bne	t0,t2,80000854 <fail>

0000000080000570 <test_12>:
    80000570:	00c00193          	li	gp,12
    80000574:	00000213          	li	tp,0
    80000578:	0abbd6b7          	lui	a3,0xabbd
    8000057c:	cdd6869b          	addiw	a3,a3,-803 # abbccdd <_start-0x75443323>
    80000580:	00002617          	auipc	a2,0x2
    80000584:	a8060613          	addi	a2,a2,-1408 # 80002000 <begin_signature>
    80000588:	00d63023          	sd	a3,0(a2)
    8000058c:	00063703          	ld	a4,0(a2)
    80000590:	0abbd3b7          	lui	t2,0xabbd
    80000594:	cdd3839b          	addiw	t2,t2,-803 # abbccdd <_start-0x75443323>
    80000598:	2a771e63          	bne	a4,t2,80000854 <fail>
    8000059c:	00120213          	addi	tp,tp,1 # 1 <_start-0x7fffffff>
    800005a0:	00200293          	li	t0,2
    800005a4:	fc521ae3          	bne	tp,t0,80000578 <test_12+0x8>

00000000800005a8 <test_13>:
    800005a8:	00d00193          	li	gp,13
    800005ac:	00000213          	li	tp,0
    800005b0:	0aabc6b7          	lui	a3,0xaabc
    800005b4:	ccd6869b          	addiw	a3,a3,-819 # aabbccd <_start-0x75544333>
    800005b8:	00002617          	auipc	a2,0x2
    800005bc:	a4860613          	addi	a2,a2,-1464 # 80002000 <begin_signature>
    800005c0:	00000013          	nop
    800005c4:	00d63423          	sd	a3,8(a2)
    800005c8:	00863703          	ld	a4,8(a2)
    800005cc:	0aabc3b7          	lui	t2,0xaabc
    800005d0:	ccd3839b          	addiw	t2,t2,-819 # aabbccd <_start-0x75544333>
    800005d4:	28771063          	bne	a4,t2,80000854 <fail>
    800005d8:	00120213          	addi	tp,tp,1 # 1 <_start-0x7fffffff>
    800005dc:	00200293          	li	t0,2
    800005e0:	fc5218e3          	bne	tp,t0,800005b0 <test_13+0x8>

00000000800005e4 <test_14>:
    800005e4:	00e00193          	li	gp,14
    800005e8:	00000213          	li	tp,0
    800005ec:	0daac6b7          	lui	a3,0xdaac
    800005f0:	bcc6869b          	addiw	a3,a3,-1076 # daabbcc <_start-0x72554434>
    800005f4:	00002617          	auipc	a2,0x2
    800005f8:	a0c60613          	addi	a2,a2,-1524 # 80002000 <begin_signature>
    800005fc:	00000013          	nop
    80000600:	00000013          	nop
    80000604:	00d63823          	sd	a3,16(a2)
    80000608:	01063703          	ld	a4,16(a2)
    8000060c:	0daac3b7          	lui	t2,0xdaac
    80000610:	bcc3839b          	addiw	t2,t2,-1076 # daabbcc <_start-0x72554434>
    80000614:	24771063          	bne	a4,t2,80000854 <fail>
    80000618:	00120213          	addi	tp,tp,1 # 1 <_start-0x7fffffff>
    8000061c:	00200293          	li	t0,2
    80000620:	fc5216e3          	bne	tp,t0,800005ec <test_14+0x8>

0000000080000624 <test_15>:
    80000624:	00f00193          	li	gp,15
    80000628:	00000213          	li	tp,0
    8000062c:	0ddab6b7          	lui	a3,0xddab
    80000630:	bbc6869b          	addiw	a3,a3,-1092 # ddaabbc <_start-0x72255444>
    80000634:	00000013          	nop
    80000638:	00002617          	auipc	a2,0x2
    8000063c:	9c860613          	addi	a2,a2,-1592 # 80002000 <begin_signature>
    80000640:	00d63c23          	sd	a3,24(a2)
    80000644:	01863703          	ld	a4,24(a2)
    80000648:	0ddab3b7          	lui	t2,0xddab
    8000064c:	bbc3839b          	addiw	t2,t2,-1092 # ddaabbc <_start-0x72255444>
    80000650:	20771263          	bne	a4,t2,80000854 <fail>
    80000654:	00120213          	addi	tp,tp,1 # 1 <_start-0x7fffffff>
    80000658:	00200293          	li	t0,2
    8000065c:	fc5218e3          	bne	tp,t0,8000062c <test_15+0x8>

0000000080000660 <test_16>:
    80000660:	01000193          	li	gp,16
    80000664:	00000213          	li	tp,0
    80000668:	0cddb6b7          	lui	a3,0xcddb
    8000066c:	abb6869b          	addiw	a3,a3,-1349 # cddaabb <_start-0x73225545>
    80000670:	00000013          	nop
    80000674:	00002617          	auipc	a2,0x2
    80000678:	98c60613          	addi	a2,a2,-1652 # 80002000 <begin_signature>
    8000067c:	00000013          	nop
    80000680:	02d63023          	sd	a3,32(a2)
    80000684:	02063703          	ld	a4,32(a2)
    80000688:	0cddb3b7          	lui	t2,0xcddb
    8000068c:	abb3839b          	addiw	t2,t2,-1349 # cddaabb <_start-0x73225545>
    80000690:	1c771263          	bne	a4,t2,80000854 <fail>
    80000694:	00120213          	addi	tp,tp,1 # 1 <_start-0x7fffffff>
    80000698:	00200293          	li	t0,2
    8000069c:	fc5216e3          	bne	tp,t0,80000668 <test_16+0x8>

00000000800006a0 <test_17>:
    800006a0:	01100193          	li	gp,17
    800006a4:	00000213          	li	tp,0
    800006a8:	0ccde6b7          	lui	a3,0xccde
    800006ac:	aab6869b          	addiw	a3,a3,-1365 # ccddaab <_start-0x73322555>
    800006b0:	00000013          	nop
    800006b4:	00000013          	nop
    800006b8:	00002617          	auipc	a2,0x2
    800006bc:	94860613          	addi	a2,a2,-1720 # 80002000 <begin_signature>
    800006c0:	02d63423          	sd	a3,40(a2)
    800006c4:	02863703          	ld	a4,40(a2)
    800006c8:	0ccde3b7          	lui	t2,0xccde
    800006cc:	aab3839b          	addiw	t2,t2,-1365 # ccddaab <_start-0x73322555>
    800006d0:	18771263          	bne	a4,t2,80000854 <fail>
    800006d4:	00120213          	addi	tp,tp,1 # 1 <_start-0x7fffffff>
    800006d8:	00200293          	li	t0,2
    800006dc:	fc5216e3          	bne	tp,t0,800006a8 <test_17+0x8>

00000000800006e0 <test_18>:
    800006e0:	01200193          	li	gp,18
    800006e4:	00000213          	li	tp,0
    800006e8:	00002117          	auipc	sp,0x2
    800006ec:	91810113          	addi	sp,sp,-1768 # 80002000 <begin_signature>
    800006f0:	001120b7          	lui	ra,0x112
    800006f4:	2330809b          	addiw	ra,ra,563 # 112233 <_start-0x7feeddcd>
    800006f8:	00113023          	sd	ra,0(sp)
    800006fc:	00013703          	ld	a4,0(sp)
    80000700:	001123b7          	lui	t2,0x112
    80000704:	2333839b          	addiw	t2,t2,563 # 112233 <_start-0x7feeddcd>
    80000708:	14771663          	bne	a4,t2,80000854 <fail>
    8000070c:	00120213          	addi	tp,tp,1 # 1 <_start-0x7fffffff>
    80000710:	00200293          	li	t0,2
    80000714:	fc521ae3          	bne	tp,t0,800006e8 <test_18+0x8>

0000000080000718 <test_19>:
    80000718:	01300193          	li	gp,19
    8000071c:	00000213          	li	tp,0
    80000720:	00002117          	auipc	sp,0x2
    80000724:	8e010113          	addi	sp,sp,-1824 # 80002000 <begin_signature>
    80000728:	300110b7          	lui	ra,0x30011
    8000072c:	2230809b          	addiw	ra,ra,547 # 30011223 <_start-0x4ffeeddd>
    80000730:	00000013          	nop
    80000734:	00113423          	sd	ra,8(sp)
    80000738:	00813703          	ld	a4,8(sp)
    8000073c:	300113b7          	lui	t2,0x30011
    80000740:	2233839b          	addiw	t2,t2,547 # 30011223 <_start-0x4ffeeddd>
    80000744:	10771863          	bne	a4,t2,80000854 <fail>
    80000748:	00120213          	addi	tp,tp,1 # 1 <_start-0x7fffffff>
    8000074c:	00200293          	li	t0,2
    80000750:	fc5218e3          	bne	tp,t0,80000720 <test_19+0x8>

0000000080000754 <test_20>:
    80000754:	01400193          	li	gp,20
    80000758:	00000213          	li	tp,0
    8000075c:	00002117          	auipc	sp,0x2
    80000760:	8a410113          	addi	sp,sp,-1884 # 80002000 <begin_signature>
    80000764:	330010b7          	lui	ra,0x33001
    80000768:	1220809b          	addiw	ra,ra,290 # 33001122 <_start-0x4cffeede>
    8000076c:	00000013          	nop
    80000770:	00000013          	nop
    80000774:	00113823          	sd	ra,16(sp)
    80000778:	01013703          	ld	a4,16(sp)
    8000077c:	330013b7          	lui	t2,0x33001
    80000780:	1223839b          	addiw	t2,t2,290 # 33001122 <_start-0x4cffeede>
    80000784:	0c771863          	bne	a4,t2,80000854 <fail>
    80000788:	00120213          	addi	tp,tp,1 # 1 <_start-0x7fffffff>
    8000078c:	00200293          	li	t0,2
    80000790:	fc5216e3          	bne	tp,t0,8000075c <test_20+0x8>

0000000080000794 <test_21>:
    80000794:	01500193          	li	gp,21
    80000798:	00000213          	li	tp,0
    8000079c:	00002117          	auipc	sp,0x2
    800007a0:	86410113          	addi	sp,sp,-1948 # 80002000 <begin_signature>
    800007a4:	00000013          	nop
    800007a8:	233000b7          	lui	ra,0x23300
    800007ac:	1120809b          	addiw	ra,ra,274 # 23300112 <_start-0x5ccffeee>
    800007b0:	00113c23          	sd	ra,24(sp)
    800007b4:	01813703          	ld	a4,24(sp)
    800007b8:	233003b7          	lui	t2,0x23300
    800007bc:	1123839b          	addiw	t2,t2,274 # 23300112 <_start-0x5ccffeee>
    800007c0:	08771a63          	bne	a4,t2,80000854 <fail>
    800007c4:	00120213          	addi	tp,tp,1 # 1 <_start-0x7fffffff>
    800007c8:	00200293          	li	t0,2
    800007cc:	fc5218e3          	bne	tp,t0,8000079c <test_21+0x8>

00000000800007d0 <test_22>:
    800007d0:	01600193          	li	gp,22
    800007d4:	00000213          	li	tp,0
    800007d8:	00002117          	auipc	sp,0x2
    800007dc:	82810113          	addi	sp,sp,-2008 # 80002000 <begin_signature>
    800007e0:	00000013          	nop
    800007e4:	223300b7          	lui	ra,0x22330
    800007e8:	0110809b          	addiw	ra,ra,17 # 22330011 <_start-0x5dccffef>
    800007ec:	00000013          	nop
    800007f0:	02113023          	sd	ra,32(sp)
    800007f4:	02013703          	ld	a4,32(sp)
    800007f8:	223303b7          	lui	t2,0x22330
    800007fc:	0113839b          	addiw	t2,t2,17 # 22330011 <_start-0x5dccffef>
    80000800:	04771a63          	bne	a4,t2,80000854 <fail>
    80000804:	00120213          	addi	tp,tp,1 # 1 <_start-0x7fffffff>
    80000808:	00200293          	li	t0,2
    8000080c:	fc5216e3          	bne	tp,t0,800007d8 <test_22+0x8>

0000000080000810 <test_23>:
    80000810:	01700193          	li	gp,23
    80000814:	00000213          	li	tp,0
    80000818:	00001117          	auipc	sp,0x1
    8000081c:	7e810113          	addi	sp,sp,2024 # 80002000 <begin_signature>
    80000820:	00000013          	nop
    80000824:	00000013          	nop
    80000828:	122330b7          	lui	ra,0x12233
    8000082c:	0010809b          	addiw	ra,ra,1 # 12233001 <_start-0x6ddccfff>
    80000830:	02113423          	sd	ra,40(sp)
    80000834:	02813703          	ld	a4,40(sp)
    80000838:	122333b7          	lui	t2,0x12233
    8000083c:	0013839b          	addiw	t2,t2,1 # 12233001 <_start-0x6ddccfff>
    80000840:	00771a63          	bne	a4,t2,80000854 <fail>
    80000844:	00120213          	addi	tp,tp,1 # 1 <_start-0x7fffffff>
    80000848:	00200293          	li	t0,2
    8000084c:	fc5216e3          	bne	tp,t0,80000818 <test_23+0x8>
    80000850:	02301063          	bne	zero,gp,80000870 <pass>

0000000080000854 <fail>:
    80000854:	0ff0000f          	fence
    80000858:	00018063          	beqz	gp,80000858 <fail+0x4>
    8000085c:	00119193          	slli	gp,gp,0x1
    80000860:	0011e193          	ori	gp,gp,1
    80000864:	05d00893          	li	a7,93
    80000868:	00018513          	mv	a0,gp
    8000086c:	00000073          	ecall

0000000080000870 <pass>:
    80000870:	0ff0000f          	fence
    80000874:	00100193          	li	gp,1
    80000878:	05d00893          	li	a7,93
    8000087c:	00000513          	li	a0,0
    80000880:	00000073          	ecall
    80000884:	c0001073          	unimp
    80000888:	0000                	.insn	2, 0x
    8000088a:	0000                	.insn	2, 0x
    8000088c:	0000                	.insn	2, 0x
    8000088e:	0000                	.insn	2, 0x
    80000890:	0000                	.insn	2, 0x
    80000892:	0000                	.insn	2, 0x
    80000894:	0000                	.insn	2, 0x
    80000896:	0000                	.insn	2, 0x
    80000898:	0000                	.insn	2, 0x
    8000089a:	0000                	.insn	2, 0x
    8000089c:	0000                	.insn	2, 0x
    8000089e:	0000                	.insn	2, 0x
    800008a0:	0000                	.insn	2, 0x
    800008a2:	0000                	.insn	2, 0x
    800008a4:	0000                	.insn	2, 0x
    800008a6:	0000                	.insn	2, 0x
    800008a8:	0000                	.insn	2, 0x
    800008aa:	0000                	.insn	2, 0x
    800008ac:	0000                	.insn	2, 0x
    800008ae:	0000                	.insn	2, 0x
    800008b0:	0000                	.insn	2, 0x
    800008b2:	0000                	.insn	2, 0x
    800008b4:	0000                	.insn	2, 0x
    800008b6:	0000                	.insn	2, 0x
    800008b8:	0000                	.insn	2, 0x
    800008ba:	0000                	.insn	2, 0x
