
rv64ui-p-sb:     file format elf64-littleriscv


Disassembly of section .text.init:

0000000080000000 <_start>:
    80000000:	0500006f          	j	80000050 <reset_vector>

0000000080000004 <trap_vector>:
    80000004:	34202f73          	csrr	t5,mcause
    80000008:	00800f93          	li	t6,8
    8000000c:	03ff0863          	beq	t5,t6,8000003c <write_tohost>
    80000010:	00900f93          	li	t6,9
    80000014:	03ff0463          	beq	t5,t6,8000003c <write_tohost>
    80000018:	00b00f93          	li	t6,11
    8000001c:	03ff0063          	beq	t5,t6,8000003c <write_tohost>
    80000020:	00000f13          	li	t5,0
    80000024:	000f0463          	beqz	t5,8000002c <trap_vector+0x28>
    80000028:	000f0067          	jr	t5
    8000002c:	34202f73          	csrr	t5,mcause
    80000030:	000f5463          	bgez	t5,80000038 <handle_exception>
    80000034:	0040006f          	j	80000038 <handle_exception>

0000000080000038 <handle_exception>:
    80000038:	5391e193          	ori	gp,gp,1337

000000008000003c <write_tohost>:
    8000003c:	00001f17          	auipc	t5,0x1
    80000040:	fc3f2223          	sw	gp,-60(t5) # 80001000 <tohost>
    80000044:	00001f17          	auipc	t5,0x1
    80000048:	fc0f2023          	sw	zero,-64(t5) # 80001004 <tohost+0x4>
    8000004c:	ff1ff06f          	j	8000003c <write_tohost>

0000000080000050 <reset_vector>:
    80000050:	00000093          	li	ra,0
    80000054:	00000113          	li	sp,0
    80000058:	00000193          	li	gp,0
    8000005c:	00000213          	li	tp,0
    80000060:	00000293          	li	t0,0
    80000064:	00000313          	li	t1,0
    80000068:	00000393          	li	t2,0
    8000006c:	00000413          	li	s0,0
    80000070:	00000493          	li	s1,0
    80000074:	00000513          	li	a0,0
    80000078:	00000593          	li	a1,0
    8000007c:	00000613          	li	a2,0
    80000080:	00000693          	li	a3,0
    80000084:	00000713          	li	a4,0
    80000088:	00000793          	li	a5,0
    8000008c:	00000813          	li	a6,0
    80000090:	00000893          	li	a7,0
    80000094:	00000913          	li	s2,0
    80000098:	00000993          	li	s3,0
    8000009c:	00000a13          	li	s4,0
    800000a0:	00000a93          	li	s5,0
    800000a4:	00000b13          	li	s6,0
    800000a8:	00000b93          	li	s7,0
    800000ac:	00000c13          	li	s8,0
    800000b0:	00000c93          	li	s9,0
    800000b4:	00000d13          	li	s10,0
    800000b8:	00000d93          	li	s11,0
    800000bc:	00000e13          	li	t3,0
    800000c0:	00000e93          	li	t4,0
    800000c4:	00000f13          	li	t5,0
    800000c8:	00000f93          	li	t6,0
    800000cc:	f1402573          	csrr	a0,mhartid
    800000d0:	00051063          	bnez	a0,800000d0 <reset_vector+0x80>
    800000d4:	00000297          	auipc	t0,0x0
    800000d8:	01028293          	addi	t0,t0,16 # 800000e4 <reset_vector+0x94>
    800000dc:	30529073          	csrw	mtvec,t0
    800000e0:	74445073          	csrwi	0x744,8
    800000e4:	00000297          	auipc	t0,0x0
    800000e8:	01028293          	addi	t0,t0,16 # 800000f4 <reset_vector+0xa4>
    800000ec:	30529073          	csrw	mtvec,t0
    800000f0:	18005073          	csrwi	satp,0
    800000f4:	00000297          	auipc	t0,0x0
    800000f8:	02428293          	addi	t0,t0,36 # 80000118 <reset_vector+0xc8>
    800000fc:	30529073          	csrw	mtvec,t0
    80000100:	0010029b          	addiw	t0,zero,1
    80000104:	03529293          	slli	t0,t0,0x35
    80000108:	fff28293          	addi	t0,t0,-1
    8000010c:	3b029073          	csrw	pmpaddr0,t0
    80000110:	01f00293          	li	t0,31
    80000114:	3a029073          	csrw	pmpcfg0,t0
    80000118:	30405073          	csrwi	mie,0
    8000011c:	00000297          	auipc	t0,0x0
    80000120:	01428293          	addi	t0,t0,20 # 80000130 <reset_vector+0xe0>
    80000124:	30529073          	csrw	mtvec,t0
    80000128:	30205073          	csrwi	medeleg,0
    8000012c:	30305073          	csrwi	mideleg,0
    80000130:	00000193          	li	gp,0
    80000134:	00000297          	auipc	t0,0x0
    80000138:	ed028293          	addi	t0,t0,-304 # 80000004 <trap_vector>
    8000013c:	30529073          	csrw	mtvec,t0
    80000140:	00100513          	li	a0,1
    80000144:	01f51513          	slli	a0,a0,0x1f
    80000148:	00055c63          	bgez	a0,80000160 <reset_vector+0x110>
    8000014c:	0ff0000f          	fence
    80000150:	00100193          	li	gp,1
    80000154:	05d00893          	li	a7,93
    80000158:	00000513          	li	a0,0
    8000015c:	00000073          	ecall
    80000160:	00000293          	li	t0,0
    80000164:	00028a63          	beqz	t0,80000178 <reset_vector+0x128>
    80000168:	10529073          	csrw	stvec,t0
    8000016c:	0000b2b7          	lui	t0,0xb
    80000170:	1092829b          	addiw	t0,t0,265 # b109 <_start-0x7fff4ef7>
    80000174:	30229073          	csrw	medeleg,t0
    80000178:	30005073          	csrwi	mstatus,0
    8000017c:	00000297          	auipc	t0,0x0
    80000180:	01428293          	addi	t0,t0,20 # 80000190 <test_2>
    80000184:	34129073          	csrw	mepc,t0
    80000188:	f1402573          	csrr	a0,mhartid
    8000018c:	30200073          	mret

0000000080000190 <test_2>:
    80000190:	00200193          	li	gp,2
    80000194:	00002117          	auipc	sp,0x2
    80000198:	e6c10113          	addi	sp,sp,-404 # 80002000 <begin_signature>
    8000019c:	faa00093          	li	ra,-86
    800001a0:	00000797          	auipc	a5,0x0
    800001a4:	01478793          	addi	a5,a5,20 # 800001b4 <test_2+0x24>
    800001a8:	00110023          	sb	ra,0(sp)
    800001ac:	00010703          	lb	a4,0(sp)
    800001b0:	0080006f          	j	800001b8 <test_2+0x28>
    800001b4:	00008713          	mv	a4,ra
    800001b8:	faa00393          	li	t2,-86
    800001bc:	44771463          	bne	a4,t2,80000604 <fail>

00000000800001c0 <test_3>:
    800001c0:	00300193          	li	gp,3
    800001c4:	00002117          	auipc	sp,0x2
    800001c8:	e3c10113          	addi	sp,sp,-452 # 80002000 <begin_signature>
    800001cc:	00000093          	li	ra,0
    800001d0:	00000797          	auipc	a5,0x0
    800001d4:	01478793          	addi	a5,a5,20 # 800001e4 <test_3+0x24>
    800001d8:	001100a3          	sb	ra,1(sp)
    800001dc:	00110703          	lb	a4,1(sp)
    800001e0:	0080006f          	j	800001e8 <test_3+0x28>
    800001e4:	00008713          	mv	a4,ra
    800001e8:	00000393          	li	t2,0
    800001ec:	40771c63          	bne	a4,t2,80000604 <fail>

00000000800001f0 <test_4>:
    800001f0:	00400193          	li	gp,4
    800001f4:	00002117          	auipc	sp,0x2
    800001f8:	e0c10113          	addi	sp,sp,-500 # 80002000 <begin_signature>
    800001fc:	fffff0b7          	lui	ra,0xfffff
    80000200:	fa00809b          	addiw	ra,ra,-96 # ffffffffffffefa0 <_end+0xffffffff7fffcf90>
    80000204:	00000797          	auipc	a5,0x0
    80000208:	01478793          	addi	a5,a5,20 # 80000218 <test_4+0x28>
    8000020c:	00110123          	sb	ra,2(sp)
    80000210:	00211703          	lh	a4,2(sp)
    80000214:	0080006f          	j	8000021c <test_4+0x2c>
    80000218:	00008713          	mv	a4,ra
    8000021c:	fffff3b7          	lui	t2,0xfffff
    80000220:	fa03839b          	addiw	t2,t2,-96 # ffffffffffffefa0 <_end+0xffffffff7fffcf90>
    80000224:	3e771063          	bne	a4,t2,80000604 <fail>

0000000080000228 <test_5>:
    80000228:	00500193          	li	gp,5
    8000022c:	00002117          	auipc	sp,0x2
    80000230:	dd410113          	addi	sp,sp,-556 # 80002000 <begin_signature>
    80000234:	00a00093          	li	ra,10
    80000238:	00000797          	auipc	a5,0x0
    8000023c:	01478793          	addi	a5,a5,20 # 8000024c <test_5+0x24>
    80000240:	001101a3          	sb	ra,3(sp)
    80000244:	00310703          	lb	a4,3(sp)
    80000248:	0080006f          	j	80000250 <test_5+0x28>
    8000024c:	00008713          	mv	a4,ra
    80000250:	00a00393          	li	t2,10
    80000254:	3a771863          	bne	a4,t2,80000604 <fail>

0000000080000258 <test_6>:
    80000258:	00600193          	li	gp,6
    8000025c:	00002117          	auipc	sp,0x2
    80000260:	dab10113          	addi	sp,sp,-597 # 80002007 <tdat8>
    80000264:	faa00093          	li	ra,-86
    80000268:	00000797          	auipc	a5,0x0
    8000026c:	01478793          	addi	a5,a5,20 # 8000027c <test_6+0x24>
    80000270:	fe110ea3          	sb	ra,-3(sp)
    80000274:	ffd10703          	lb	a4,-3(sp)
    80000278:	0080006f          	j	80000280 <test_6+0x28>
    8000027c:	00008713          	mv	a4,ra
    80000280:	faa00393          	li	t2,-86
    80000284:	38771063          	bne	a4,t2,80000604 <fail>

0000000080000288 <test_7>:
    80000288:	00700193          	li	gp,7
    8000028c:	00002117          	auipc	sp,0x2
    80000290:	d7b10113          	addi	sp,sp,-645 # 80002007 <tdat8>
    80000294:	00000093          	li	ra,0
    80000298:	00000797          	auipc	a5,0x0
    8000029c:	01478793          	addi	a5,a5,20 # 800002ac <test_7+0x24>
    800002a0:	fe110f23          	sb	ra,-2(sp)
    800002a4:	ffe10703          	lb	a4,-2(sp)
    800002a8:	0080006f          	j	800002b0 <test_7+0x28>
    800002ac:	00008713          	mv	a4,ra
    800002b0:	00000393          	li	t2,0
    800002b4:	34771863          	bne	a4,t2,80000604 <fail>

00000000800002b8 <test_8>:
    800002b8:	00800193          	li	gp,8
    800002bc:	00002117          	auipc	sp,0x2
    800002c0:	d4b10113          	addi	sp,sp,-693 # 80002007 <tdat8>
    800002c4:	fa000093          	li	ra,-96
    800002c8:	00000797          	auipc	a5,0x0
    800002cc:	01478793          	addi	a5,a5,20 # 800002dc <test_8+0x24>
    800002d0:	fe110fa3          	sb	ra,-1(sp)
    800002d4:	fff10703          	lb	a4,-1(sp)
    800002d8:	0080006f          	j	800002e0 <test_8+0x28>
    800002dc:	00008713          	mv	a4,ra
    800002e0:	fa000393          	li	t2,-96
    800002e4:	32771063          	bne	a4,t2,80000604 <fail>

00000000800002e8 <test_9>:
    800002e8:	00900193          	li	gp,9
    800002ec:	00002117          	auipc	sp,0x2
    800002f0:	d1b10113          	addi	sp,sp,-741 # 80002007 <tdat8>
    800002f4:	00a00093          	li	ra,10
    800002f8:	00000797          	auipc	a5,0x0
    800002fc:	01478793          	addi	a5,a5,20 # 8000030c <test_9+0x24>
    80000300:	00110023          	sb	ra,0(sp)
    80000304:	00010703          	lb	a4,0(sp)
    80000308:	0080006f          	j	80000310 <test_9+0x28>
    8000030c:	00008713          	mv	a4,ra
    80000310:	00a00393          	li	t2,10
    80000314:	2e771863          	bne	a4,t2,80000604 <fail>

0000000080000318 <test_10>:
    80000318:	00a00193          	li	gp,10
    8000031c:	00002097          	auipc	ra,0x2
    80000320:	cec08093          	addi	ra,ra,-788 # 80002008 <tdat9>
    80000324:	12345137          	lui	sp,0x12345
    80000328:	6781011b          	addiw	sp,sp,1656 # 12345678 <_start-0x6dcba988>
    8000032c:	fe008213          	addi	tp,ra,-32
    80000330:	02220023          	sb	sp,32(tp) # 20 <_start-0x7fffffe0>
    80000334:	00008283          	lb	t0,0(ra)
    80000338:	07800393          	li	t2,120
    8000033c:	2c729463          	bne	t0,t2,80000604 <fail>

0000000080000340 <test_11>:
    80000340:	00b00193          	li	gp,11
    80000344:	00002097          	auipc	ra,0x2
    80000348:	cc408093          	addi	ra,ra,-828 # 80002008 <tdat9>
    8000034c:	00003137          	lui	sp,0x3
    80000350:	0981011b          	addiw	sp,sp,152 # 3098 <_start-0x7fffcf68>
    80000354:	ffa08093          	addi	ra,ra,-6
    80000358:	002083a3          	sb	sp,7(ra)
    8000035c:	00002217          	auipc	tp,0x2
    80000360:	cad20213          	addi	tp,tp,-851 # 80002009 <tdat10>
    80000364:	00020283          	lb	t0,0(tp) # 0 <_start-0x80000000>
    80000368:	f9800393          	li	t2,-104
    8000036c:	28729c63          	bne	t0,t2,80000604 <fail>

0000000080000370 <test_12>:
    80000370:	00c00193          	li	gp,12
    80000374:	00000213          	li	tp,0
    80000378:	fdd00693          	li	a3,-35
    8000037c:	00002617          	auipc	a2,0x2
    80000380:	c8460613          	addi	a2,a2,-892 # 80002000 <begin_signature>
    80000384:	00d60023          	sb	a3,0(a2)
    80000388:	00060703          	lb	a4,0(a2)
    8000038c:	fdd00393          	li	t2,-35
    80000390:	26771a63          	bne	a4,t2,80000604 <fail>
    80000394:	00120213          	addi	tp,tp,1 # 1 <_start-0x7fffffff>
    80000398:	00200293          	li	t0,2
    8000039c:	fc521ee3          	bne	tp,t0,80000378 <test_12+0x8>

00000000800003a0 <test_13>:
    800003a0:	00d00193          	li	gp,13
    800003a4:	00000213          	li	tp,0
    800003a8:	fcd00693          	li	a3,-51
    800003ac:	00002617          	auipc	a2,0x2
    800003b0:	c5460613          	addi	a2,a2,-940 # 80002000 <begin_signature>
    800003b4:	00000013          	nop
    800003b8:	00d600a3          	sb	a3,1(a2)
    800003bc:	00160703          	lb	a4,1(a2)
    800003c0:	fcd00393          	li	t2,-51
    800003c4:	24771063          	bne	a4,t2,80000604 <fail>
    800003c8:	00120213          	addi	tp,tp,1 # 1 <_start-0x7fffffff>
    800003cc:	00200293          	li	t0,2
    800003d0:	fc521ce3          	bne	tp,t0,800003a8 <test_13+0x8>

00000000800003d4 <test_14>:
    800003d4:	00e00193          	li	gp,14
    800003d8:	00000213          	li	tp,0
    800003dc:	fcc00693          	li	a3,-52
    800003e0:	00002617          	auipc	a2,0x2
    800003e4:	c2060613          	addi	a2,a2,-992 # 80002000 <begin_signature>
    800003e8:	00000013          	nop
    800003ec:	00000013          	nop
    800003f0:	00d60123          	sb	a3,2(a2)
    800003f4:	00260703          	lb	a4,2(a2)
    800003f8:	fcc00393          	li	t2,-52
    800003fc:	20771463          	bne	a4,t2,80000604 <fail>
    80000400:	00120213          	addi	tp,tp,1 # 1 <_start-0x7fffffff>
    80000404:	00200293          	li	t0,2
    80000408:	fc521ae3          	bne	tp,t0,800003dc <test_14+0x8>

000000008000040c <test_15>:
    8000040c:	00f00193          	li	gp,15
    80000410:	00000213          	li	tp,0
    80000414:	fbc00693          	li	a3,-68
    80000418:	00000013          	nop
    8000041c:	00002617          	auipc	a2,0x2
    80000420:	be460613          	addi	a2,a2,-1052 # 80002000 <begin_signature>
    80000424:	00d601a3          	sb	a3,3(a2)
    80000428:	00360703          	lb	a4,3(a2)
    8000042c:	fbc00393          	li	t2,-68
    80000430:	1c771a63          	bne	a4,t2,80000604 <fail>
    80000434:	00120213          	addi	tp,tp,1 # 1 <_start-0x7fffffff>
    80000438:	00200293          	li	t0,2
    8000043c:	fc521ce3          	bne	tp,t0,80000414 <test_15+0x8>

0000000080000440 <test_16>:
    80000440:	01000193          	li	gp,16
    80000444:	00000213          	li	tp,0
    80000448:	fbb00693          	li	a3,-69
    8000044c:	00000013          	nop
    80000450:	00002617          	auipc	a2,0x2
    80000454:	bb060613          	addi	a2,a2,-1104 # 80002000 <begin_signature>
    80000458:	00000013          	nop
    8000045c:	00d60223          	sb	a3,4(a2)
    80000460:	00460703          	lb	a4,4(a2)
    80000464:	fbb00393          	li	t2,-69
    80000468:	18771e63          	bne	a4,t2,80000604 <fail>
    8000046c:	00120213          	addi	tp,tp,1 # 1 <_start-0x7fffffff>
    80000470:	00200293          	li	t0,2
    80000474:	fc521ae3          	bne	tp,t0,80000448 <test_16+0x8>

0000000080000478 <test_17>:
    80000478:	01100193          	li	gp,17
    8000047c:	00000213          	li	tp,0
    80000480:	fab00693          	li	a3,-85
    80000484:	00000013          	nop
    80000488:	00000013          	nop
    8000048c:	00002617          	auipc	a2,0x2
    80000490:	b7460613          	addi	a2,a2,-1164 # 80002000 <begin_signature>
    80000494:	00d602a3          	sb	a3,5(a2)
    80000498:	00560703          	lb	a4,5(a2)
    8000049c:	fab00393          	li	t2,-85
    800004a0:	16771263          	bne	a4,t2,80000604 <fail>
    800004a4:	00120213          	addi	tp,tp,1 # 1 <_start-0x7fffffff>
    800004a8:	00200293          	li	t0,2
    800004ac:	fc521ae3          	bne	tp,t0,80000480 <test_17+0x8>

00000000800004b0 <test_18>:
    800004b0:	01200193          	li	gp,18
    800004b4:	00000213          	li	tp,0
    800004b8:	00002117          	auipc	sp,0x2
    800004bc:	b4810113          	addi	sp,sp,-1208 # 80002000 <begin_signature>
    800004c0:	03300093          	li	ra,51
    800004c4:	00110023          	sb	ra,0(sp)
    800004c8:	00010703          	lb	a4,0(sp)
    800004cc:	03300393          	li	t2,51
    800004d0:	12771a63          	bne	a4,t2,80000604 <fail>
    800004d4:	00120213          	addi	tp,tp,1 # 1 <_start-0x7fffffff>
    800004d8:	00200293          	li	t0,2
    800004dc:	fc521ee3          	bne	tp,t0,800004b8 <test_18+0x8>

00000000800004e0 <test_19>:
    800004e0:	01300193          	li	gp,19
    800004e4:	00000213          	li	tp,0
    800004e8:	00002117          	auipc	sp,0x2
    800004ec:	b1810113          	addi	sp,sp,-1256 # 80002000 <begin_signature>
    800004f0:	02300093          	li	ra,35
    800004f4:	00000013          	nop
    800004f8:	001100a3          	sb	ra,1(sp)
    800004fc:	00110703          	lb	a4,1(sp)
    80000500:	02300393          	li	t2,35
    80000504:	10771063          	bne	a4,t2,80000604 <fail>
    80000508:	00120213          	addi	tp,tp,1 # 1 <_start-0x7fffffff>
    8000050c:	00200293          	li	t0,2
    80000510:	fc521ce3          	bne	tp,t0,800004e8 <test_19+0x8>

0000000080000514 <test_20>:
    80000514:	01400193          	li	gp,20
    80000518:	00000213          	li	tp,0
    8000051c:	00002117          	auipc	sp,0x2
    80000520:	ae410113          	addi	sp,sp,-1308 # 80002000 <begin_signature>
    80000524:	02200093          	li	ra,34
    80000528:	00000013          	nop
    8000052c:	00000013          	nop
    80000530:	00110123          	sb	ra,2(sp)
    80000534:	00210703          	lb	a4,2(sp)
    80000538:	02200393          	li	t2,34
    8000053c:	0c771463          	bne	a4,t2,80000604 <fail>
    80000540:	00120213          	addi	tp,tp,1 # 1 <_start-0x7fffffff>
    80000544:	00200293          	li	t0,2
    80000548:	fc521ae3          	bne	tp,t0,8000051c <test_20+0x8>

000000008000054c <test_21>:
    8000054c:	01500193          	li	gp,21
    80000550:	00000213          	li	tp,0
    80000554:	00002117          	auipc	sp,0x2
    80000558:	aac10113          	addi	sp,sp,-1364 # 80002000 <begin_signature>
    8000055c:	00000013          	nop
    80000560:	01200093          	li	ra,18
    80000564:	001101a3          	sb	ra,3(sp)
    80000568:	00310703          	lb	a4,3(sp)
    8000056c:	01200393          	li	t2,18
    80000570:	08771a63          	bne	a4,t2,80000604 <fail>
    80000574:	00120213          	addi	tp,tp,1 # 1 <_start-0x7fffffff>
    80000578:	00200293          	li	t0,2
    8000057c:	fc521ce3          	bne	tp,t0,80000554 <test_21+0x8>

0000000080000580 <test_22>:
    80000580:	01600193          	li	gp,22
    80000584:	00000213          	li	tp,0
    80000588:	00002117          	auipc	sp,0x2
    8000058c:	a7810113          	addi	sp,sp,-1416 # 80002000 <begin_signature>
    80000590:	00000013          	nop
    80000594:	01100093          	li	ra,17
    80000598:	00000013          	nop
    8000059c:	00110223          	sb	ra,4(sp)
    800005a0:	00410703          	lb	a4,4(sp)
    800005a4:	01100393          	li	t2,17
    800005a8:	04771e63          	bne	a4,t2,80000604 <fail>
    800005ac:	00120213          	addi	tp,tp,1 # 1 <_start-0x7fffffff>
    800005b0:	00200293          	li	t0,2
    800005b4:	fc521ae3          	bne	tp,t0,80000588 <test_22+0x8>

00000000800005b8 <test_23>:
    800005b8:	01700193          	li	gp,23
    800005bc:	00000213          	li	tp,0
    800005c0:	00002117          	auipc	sp,0x2
    800005c4:	a4010113          	addi	sp,sp,-1472 # 80002000 <begin_signature>
    800005c8:	00000013          	nop
    800005cc:	00000013          	nop
    800005d0:	00100093          	li	ra,1
    800005d4:	001102a3          	sb	ra,5(sp)
    800005d8:	00510703          	lb	a4,5(sp)
    800005dc:	00100393          	li	t2,1
    800005e0:	02771263          	bne	a4,t2,80000604 <fail>
    800005e4:	00120213          	addi	tp,tp,1 # 1 <_start-0x7fffffff>
    800005e8:	00200293          	li	t0,2
    800005ec:	fc521ae3          	bne	tp,t0,800005c0 <test_23+0x8>
    800005f0:	0ef00513          	li	a0,239
    800005f4:	00002597          	auipc	a1,0x2
    800005f8:	a0c58593          	addi	a1,a1,-1524 # 80002000 <begin_signature>
    800005fc:	00a581a3          	sb	a0,3(a1)
    80000600:	02301063          	bne	zero,gp,80000620 <pass>

0000000080000604 <fail>:
    80000604:	0ff0000f          	fence
    80000608:	00018063          	beqz	gp,80000608 <fail+0x4>
    8000060c:	00119193          	slli	gp,gp,0x1
    80000610:	0011e193          	ori	gp,gp,1
    80000614:	05d00893          	li	a7,93
    80000618:	00018513          	mv	a0,gp
    8000061c:	00000073          	ecall

0000000080000620 <pass>:
    80000620:	0ff0000f          	fence
    80000624:	00100193          	li	gp,1
    80000628:	05d00893          	li	a7,93
    8000062c:	00000513          	li	a0,0
    80000630:	00000073          	ecall
    80000634:	c0001073          	unimp
    80000638:	0000                	.insn	2, 0x
    8000063a:	0000                	.insn	2, 0x
