
rv64uzbs-p-binv:     file format elf64-littleriscv


Disassembly of section .text.init:

0000000080000000 <_start>:
    80000000:	0500006f          	j	80000050 <reset_vector>

0000000080000004 <trap_vector>:
    80000004:	34202f73          	csrr	t5,mcause
    80000008:	00800f93          	li	t6,8
    8000000c:	03ff0863          	beq	t5,t6,8000003c <write_tohost>
    80000010:	00900f93          	li	t6,9
    80000014:	03ff0463          	beq	t5,t6,8000003c <write_tohost>
    80000018:	00b00f93          	li	t6,11
    8000001c:	03ff0063          	beq	t5,t6,8000003c <write_tohost>
    80000020:	00000f13          	li	t5,0
    80000024:	000f0463          	beqz	t5,8000002c <trap_vector+0x28>
    80000028:	000f0067          	jr	t5
    8000002c:	34202f73          	csrr	t5,mcause
    80000030:	000f5463          	bgez	t5,80000038 <handle_exception>
    80000034:	0040006f          	j	80000038 <handle_exception>

0000000080000038 <handle_exception>:
    80000038:	5391e193          	ori	gp,gp,1337

000000008000003c <write_tohost>:
    8000003c:	00001f17          	auipc	t5,0x1
    80000040:	fc3f2223          	sw	gp,-60(t5) # 80001000 <tohost>
    80000044:	00001f17          	auipc	t5,0x1
    80000048:	fc0f2023          	sw	zero,-64(t5) # 80001004 <tohost+0x4>
    8000004c:	ff1ff06f          	j	8000003c <write_tohost>

0000000080000050 <reset_vector>:
    80000050:	00000093          	li	ra,0
    80000054:	00000113          	li	sp,0
    80000058:	00000193          	li	gp,0
    8000005c:	00000213          	li	tp,0
    80000060:	00000293          	li	t0,0
    80000064:	00000313          	li	t1,0
    80000068:	00000393          	li	t2,0
    8000006c:	00000413          	li	s0,0
    80000070:	00000493          	li	s1,0
    80000074:	00000513          	li	a0,0
    80000078:	00000593          	li	a1,0
    8000007c:	00000613          	li	a2,0
    80000080:	00000693          	li	a3,0
    80000084:	00000713          	li	a4,0
    80000088:	00000793          	li	a5,0
    8000008c:	00000813          	li	a6,0
    80000090:	00000893          	li	a7,0
    80000094:	00000913          	li	s2,0
    80000098:	00000993          	li	s3,0
    8000009c:	00000a13          	li	s4,0
    800000a0:	00000a93          	li	s5,0
    800000a4:	00000b13          	li	s6,0
    800000a8:	00000b93          	li	s7,0
    800000ac:	00000c13          	li	s8,0
    800000b0:	00000c93          	li	s9,0
    800000b4:	00000d13          	li	s10,0
    800000b8:	00000d93          	li	s11,0
    800000bc:	00000e13          	li	t3,0
    800000c0:	00000e93          	li	t4,0
    800000c4:	00000f13          	li	t5,0
    800000c8:	00000f93          	li	t6,0
    800000cc:	f1402573          	csrr	a0,mhartid
    800000d0:	00051063          	bnez	a0,800000d0 <reset_vector+0x80>
    800000d4:	00000297          	auipc	t0,0x0
    800000d8:	01028293          	addi	t0,t0,16 # 800000e4 <reset_vector+0x94>
    800000dc:	30529073          	csrw	mtvec,t0
    800000e0:	74445073          	csrwi	0x744,8
    800000e4:	00000297          	auipc	t0,0x0
    800000e8:	01028293          	addi	t0,t0,16 # 800000f4 <reset_vector+0xa4>
    800000ec:	30529073          	csrw	mtvec,t0
    800000f0:	18005073          	csrwi	satp,0
    800000f4:	00000297          	auipc	t0,0x0
    800000f8:	02428293          	addi	t0,t0,36 # 80000118 <reset_vector+0xc8>
    800000fc:	30529073          	csrw	mtvec,t0
    80000100:	0010029b          	addiw	t0,zero,1
    80000104:	03529293          	slli	t0,t0,0x35
    80000108:	fff28293          	addi	t0,t0,-1
    8000010c:	3b029073          	csrw	pmpaddr0,t0
    80000110:	01f00293          	li	t0,31
    80000114:	3a029073          	csrw	pmpcfg0,t0
    80000118:	30405073          	csrwi	mie,0
    8000011c:	00000297          	auipc	t0,0x0
    80000120:	01428293          	addi	t0,t0,20 # 80000130 <reset_vector+0xe0>
    80000124:	30529073          	csrw	mtvec,t0
    80000128:	30205073          	csrwi	medeleg,0
    8000012c:	30305073          	csrwi	mideleg,0
    80000130:	00000193          	li	gp,0
    80000134:	00000297          	auipc	t0,0x0
    80000138:	ed028293          	addi	t0,t0,-304 # 80000004 <trap_vector>
    8000013c:	30529073          	csrw	mtvec,t0
    80000140:	00100513          	li	a0,1
    80000144:	01f51513          	slli	a0,a0,0x1f
    80000148:	00055c63          	bgez	a0,80000160 <reset_vector+0x110>
    8000014c:	0ff0000f          	fence
    80000150:	00100193          	li	gp,1
    80000154:	05d00893          	li	a7,93
    80000158:	00000513          	li	a0,0
    8000015c:	00000073          	ecall
    80000160:	00000293          	li	t0,0
    80000164:	00028a63          	beqz	t0,80000178 <reset_vector+0x128>
    80000168:	10529073          	csrw	stvec,t0
    8000016c:	0000b2b7          	lui	t0,0xb
    80000170:	1092829b          	addiw	t0,t0,265 # b109 <_start-0x7fff4ef7>
    80000174:	30229073          	csrw	medeleg,t0
    80000178:	30005073          	csrwi	mstatus,0
    8000017c:	00000297          	auipc	t0,0x0
    80000180:	01428293          	addi	t0,t0,20 # 80000190 <test_2>
    80000184:	34129073          	csrw	mepc,t0
    80000188:	f1402573          	csrr	a0,mhartid
    8000018c:	30200073          	mret

0000000080000190 <test_2>:
    80000190:	00200193          	li	gp,2
    80000194:	00100593          	li	a1,1
    80000198:	00000613          	li	a2,0
    8000019c:	68c59733          	binv	a4,a1,a2
    800001a0:	00000393          	li	t2,0
    800001a4:	64771263          	bne	a4,t2,800007e8 <fail>

00000000800001a8 <test_3>:
    800001a8:	00300193          	li	gp,3
    800001ac:	00100593          	li	a1,1
    800001b0:	00100613          	li	a2,1
    800001b4:	68c59733          	binv	a4,a1,a2
    800001b8:	00300393          	li	t2,3
    800001bc:	62771663          	bne	a4,t2,800007e8 <fail>

00000000800001c0 <test_4>:
    800001c0:	00400193          	li	gp,4
    800001c4:	00100593          	li	a1,1
    800001c8:	00700613          	li	a2,7
    800001cc:	68c59733          	binv	a4,a1,a2
    800001d0:	08100393          	li	t2,129
    800001d4:	60771a63          	bne	a4,t2,800007e8 <fail>

00000000800001d8 <test_5>:
    800001d8:	00500193          	li	gp,5
    800001dc:	00100593          	li	a1,1
    800001e0:	00e00613          	li	a2,14
    800001e4:	68c59733          	binv	a4,a1,a2
    800001e8:	000043b7          	lui	t2,0x4
    800001ec:	0013839b          	addiw	t2,t2,1 # 4001 <_start-0x7fffbfff>
    800001f0:	5e771c63          	bne	a4,t2,800007e8 <fail>

00000000800001f4 <test_6>:
    800001f4:	00600193          	li	gp,6
    800001f8:	00100593          	li	a1,1
    800001fc:	01f00613          	li	a2,31
    80000200:	68c59733          	binv	a4,a1,a2
    80000204:	0010039b          	addiw	t2,zero,1
    80000208:	01f39393          	slli	t2,t2,0x1f
    8000020c:	00138393          	addi	t2,t2,1
    80000210:	5c771c63          	bne	a4,t2,800007e8 <fail>

0000000080000214 <test_7>:
    80000214:	00700193          	li	gp,7
    80000218:	fff00593          	li	a1,-1
    8000021c:	00000613          	li	a2,0
    80000220:	68c59733          	binv	a4,a1,a2
    80000224:	ffe00393          	li	t2,-2
    80000228:	5c771063          	bne	a4,t2,800007e8 <fail>

000000008000022c <test_8>:
    8000022c:	00800193          	li	gp,8
    80000230:	fff00593          	li	a1,-1
    80000234:	00100613          	li	a2,1
    80000238:	68c59733          	binv	a4,a1,a2
    8000023c:	ffd00393          	li	t2,-3
    80000240:	5a771463          	bne	a4,t2,800007e8 <fail>

0000000080000244 <test_9>:
    80000244:	00900193          	li	gp,9
    80000248:	fff00593          	li	a1,-1
    8000024c:	00700613          	li	a2,7
    80000250:	68c59733          	binv	a4,a1,a2
    80000254:	f7f00393          	li	t2,-129
    80000258:	58771863          	bne	a4,t2,800007e8 <fail>

000000008000025c <test_10>:
    8000025c:	00a00193          	li	gp,10
    80000260:	fff00593          	li	a1,-1
    80000264:	00e00613          	li	a2,14
    80000268:	68c59733          	binv	a4,a1,a2
    8000026c:	ffffc3b7          	lui	t2,0xffffc
    80000270:	fff3839b          	addiw	t2,t2,-1 # ffffffffffffbfff <_end+0xffffffff7fff9fff>
    80000274:	56771a63          	bne	a4,t2,800007e8 <fail>

0000000080000278 <test_11>:
    80000278:	00b00193          	li	gp,11
    8000027c:	fff00593          	li	a1,-1
    80000280:	01f00613          	li	a2,31
    80000284:	68c59733          	binv	a4,a1,a2
    80000288:	fff0039b          	addiw	t2,zero,-1
    8000028c:	01f39393          	slli	t2,t2,0x1f
    80000290:	fff38393          	addi	t2,t2,-1
    80000294:	54771a63          	bne	a4,t2,800007e8 <fail>

0000000080000298 <test_12>:
    80000298:	00c00193          	li	gp,12
    8000029c:	212125b7          	lui	a1,0x21212
    800002a0:	1215859b          	addiw	a1,a1,289 # 21212121 <_start-0x5edededf>
    800002a4:	00000613          	li	a2,0
    800002a8:	68c59733          	binv	a4,a1,a2
    800002ac:	212123b7          	lui	t2,0x21212
    800002b0:	1203839b          	addiw	t2,t2,288 # 21212120 <_start-0x5ededee0>
    800002b4:	52771a63          	bne	a4,t2,800007e8 <fail>

00000000800002b8 <test_13>:
    800002b8:	00d00193          	li	gp,13
    800002bc:	212125b7          	lui	a1,0x21212
    800002c0:	1215859b          	addiw	a1,a1,289 # 21212121 <_start-0x5edededf>
    800002c4:	00100613          	li	a2,1
    800002c8:	68c59733          	binv	a4,a1,a2
    800002cc:	212123b7          	lui	t2,0x21212
    800002d0:	1233839b          	addiw	t2,t2,291 # 21212123 <_start-0x5edededd>
    800002d4:	50771a63          	bne	a4,t2,800007e8 <fail>

00000000800002d8 <test_14>:
    800002d8:	00e00193          	li	gp,14
    800002dc:	212125b7          	lui	a1,0x21212
    800002e0:	1215859b          	addiw	a1,a1,289 # 21212121 <_start-0x5edededf>
    800002e4:	00700613          	li	a2,7
    800002e8:	68c59733          	binv	a4,a1,a2
    800002ec:	212123b7          	lui	t2,0x21212
    800002f0:	1a13839b          	addiw	t2,t2,417 # 212121a1 <_start-0x5edede5f>
    800002f4:	4e771a63          	bne	a4,t2,800007e8 <fail>

00000000800002f8 <test_15>:
    800002f8:	00f00193          	li	gp,15
    800002fc:	212125b7          	lui	a1,0x21212
    80000300:	1215859b          	addiw	a1,a1,289 # 21212121 <_start-0x5edededf>
    80000304:	00e00613          	li	a2,14
    80000308:	68c59733          	binv	a4,a1,a2
    8000030c:	212163b7          	lui	t2,0x21216
    80000310:	1213839b          	addiw	t2,t2,289 # 21216121 <_start-0x5ede9edf>
    80000314:	4c771a63          	bne	a4,t2,800007e8 <fail>

0000000080000318 <test_16>:
    80000318:	01000193          	li	gp,16
    8000031c:	212125b7          	lui	a1,0x21212
    80000320:	1215859b          	addiw	a1,a1,289 # 21212121 <_start-0x5edededf>
    80000324:	01f00613          	li	a2,31
    80000328:	68c59733          	binv	a4,a1,a2
    8000032c:	000513b7          	lui	t2,0x51
    80000330:	9093839b          	addiw	t2,t2,-1783 # 50909 <_start-0x7ffaf6f7>
    80000334:	00d39393          	slli	t2,t2,0xd
    80000338:	12138393          	addi	t2,t2,289
    8000033c:	4a771663          	bne	a4,t2,800007e8 <fail>

0000000080000340 <test_17>:
    80000340:	01100193          	li	gp,17
    80000344:	212125b7          	lui	a1,0x21212
    80000348:	1215859b          	addiw	a1,a1,289 # 21212121 <_start-0x5edededf>
    8000034c:	fc000613          	li	a2,-64
    80000350:	68c59733          	binv	a4,a1,a2
    80000354:	212123b7          	lui	t2,0x21212
    80000358:	1203839b          	addiw	t2,t2,288 # 21212120 <_start-0x5ededee0>
    8000035c:	48771663          	bne	a4,t2,800007e8 <fail>

0000000080000360 <test_18>:
    80000360:	01200193          	li	gp,18
    80000364:	212125b7          	lui	a1,0x21212
    80000368:	1215859b          	addiw	a1,a1,289 # 21212121 <_start-0x5edededf>
    8000036c:	fc100613          	li	a2,-63
    80000370:	68c59733          	binv	a4,a1,a2
    80000374:	212123b7          	lui	t2,0x21212
    80000378:	1233839b          	addiw	t2,t2,291 # 21212123 <_start-0x5edededd>
    8000037c:	46771663          	bne	a4,t2,800007e8 <fail>

0000000080000380 <test_19>:
    80000380:	01300193          	li	gp,19
    80000384:	212125b7          	lui	a1,0x21212
    80000388:	1215859b          	addiw	a1,a1,289 # 21212121 <_start-0x5edededf>
    8000038c:	fc700613          	li	a2,-57
    80000390:	68c59733          	binv	a4,a1,a2
    80000394:	212123b7          	lui	t2,0x21212
    80000398:	1a13839b          	addiw	t2,t2,417 # 212121a1 <_start-0x5edede5f>
    8000039c:	44771663          	bne	a4,t2,800007e8 <fail>

00000000800003a0 <test_20>:
    800003a0:	01400193          	li	gp,20
    800003a4:	212125b7          	lui	a1,0x21212
    800003a8:	1215859b          	addiw	a1,a1,289 # 21212121 <_start-0x5edededf>
    800003ac:	fce00613          	li	a2,-50
    800003b0:	68c59733          	binv	a4,a1,a2
    800003b4:	212163b7          	lui	t2,0x21216
    800003b8:	1213839b          	addiw	t2,t2,289 # 21216121 <_start-0x5ede9edf>
    800003bc:	42771663          	bne	a4,t2,800007e8 <fail>

00000000800003c0 <test_21>:
    800003c0:	01500193          	li	gp,21
    800003c4:	212125b7          	lui	a1,0x21212
    800003c8:	1215859b          	addiw	a1,a1,289 # 21212121 <_start-0x5edededf>
    800003cc:	fff00613          	li	a2,-1
    800003d0:	68c59733          	binv	a4,a1,a2
    800003d4:	fff0039b          	addiw	t2,zero,-1
    800003d8:	02639393          	slli	t2,t2,0x26
    800003dc:	01138393          	addi	t2,t2,17
    800003e0:	00c39393          	slli	t2,t2,0xc
    800003e4:	90938393          	addi	t2,t2,-1783
    800003e8:	00d39393          	slli	t2,t2,0xd
    800003ec:	12138393          	addi	t2,t2,289
    800003f0:	3e771c63          	bne	a4,t2,800007e8 <fail>

00000000800003f4 <test_50>:
    800003f4:	03200193          	li	gp,50
    800003f8:	00100593          	li	a1,1
    800003fc:	03f00613          	li	a2,63
    80000400:	68c59733          	binv	a4,a1,a2
    80000404:	fff0039b          	addiw	t2,zero,-1
    80000408:	03f39393          	slli	t2,t2,0x3f
    8000040c:	00138393          	addi	t2,t2,1
    80000410:	3c771c63          	bne	a4,t2,800007e8 <fail>

0000000080000414 <test_51>:
    80000414:	03300193          	li	gp,51
    80000418:	fff00593          	li	a1,-1
    8000041c:	02700613          	li	a2,39
    80000420:	68c59733          	binv	a4,a1,a2
    80000424:	fff0039b          	addiw	t2,zero,-1
    80000428:	02739393          	slli	t2,t2,0x27
    8000042c:	fff38393          	addi	t2,t2,-1
    80000430:	3a771c63          	bne	a4,t2,800007e8 <fail>

0000000080000434 <test_52>:
    80000434:	03400193          	li	gp,52
    80000438:	212125b7          	lui	a1,0x21212
    8000043c:	1215859b          	addiw	a1,a1,289 # 21212121 <_start-0x5edededf>
    80000440:	02b00613          	li	a2,43
    80000444:	68c59733          	binv	a4,a1,a2
    80000448:	400113b7          	lui	t2,0x40011
    8000044c:	9093839b          	addiw	t2,t2,-1783 # 40010909 <_start-0x3ffef6f7>
    80000450:	00d39393          	slli	t2,t2,0xd
    80000454:	12138393          	addi	t2,t2,289
    80000458:	38771863          	bne	a4,t2,800007e8 <fail>

000000008000045c <test_22>:
    8000045c:	01600193          	li	gp,22
    80000460:	00100593          	li	a1,1
    80000464:	00700613          	li	a2,7
    80000468:	68c595b3          	binv	a1,a1,a2
    8000046c:	08100393          	li	t2,129
    80000470:	36759c63          	bne	a1,t2,800007e8 <fail>

0000000080000474 <test_23>:
    80000474:	01700193          	li	gp,23
    80000478:	00100593          	li	a1,1
    8000047c:	00e00613          	li	a2,14
    80000480:	68c59633          	binv	a2,a1,a2
    80000484:	000043b7          	lui	t2,0x4
    80000488:	0013839b          	addiw	t2,t2,1 # 4001 <_start-0x7fffbfff>
    8000048c:	34761e63          	bne	a2,t2,800007e8 <fail>

0000000080000490 <test_24>:
    80000490:	01800193          	li	gp,24
    80000494:	00300593          	li	a1,3
    80000498:	68b595b3          	binv	a1,a1,a1
    8000049c:	00b00393          	li	t2,11
    800004a0:	34759463          	bne	a1,t2,800007e8 <fail>

00000000800004a4 <test_25>:
    800004a4:	01900193          	li	gp,25
    800004a8:	00000213          	li	tp,0
    800004ac:	00100093          	li	ra,1
    800004b0:	00700113          	li	sp,7
    800004b4:	68209733          	binv	a4,ra,sp
    800004b8:	00070313          	mv	t1,a4
    800004bc:	00120213          	addi	tp,tp,1 # 1 <_start-0x7fffffff>
    800004c0:	00200293          	li	t0,2
    800004c4:	fe5214e3          	bne	tp,t0,800004ac <test_25+0x8>
    800004c8:	08100393          	li	t2,129
    800004cc:	30731e63          	bne	t1,t2,800007e8 <fail>

00000000800004d0 <test_26>:
    800004d0:	01a00193          	li	gp,26
    800004d4:	00000213          	li	tp,0
    800004d8:	00100093          	li	ra,1
    800004dc:	00e00113          	li	sp,14
    800004e0:	68209733          	binv	a4,ra,sp
    800004e4:	00000013          	nop
    800004e8:	00070313          	mv	t1,a4
    800004ec:	00120213          	addi	tp,tp,1 # 1 <_start-0x7fffffff>
    800004f0:	00200293          	li	t0,2
    800004f4:	fe5212e3          	bne	tp,t0,800004d8 <test_26+0x8>
    800004f8:	000043b7          	lui	t2,0x4
    800004fc:	0013839b          	addiw	t2,t2,1 # 4001 <_start-0x7fffbfff>
    80000500:	2e731463          	bne	t1,t2,800007e8 <fail>

0000000080000504 <test_27>:
    80000504:	01b00193          	li	gp,27
    80000508:	00000213          	li	tp,0
    8000050c:	00100093          	li	ra,1
    80000510:	01f00113          	li	sp,31
    80000514:	68209733          	binv	a4,ra,sp
    80000518:	00000013          	nop
    8000051c:	00000013          	nop
    80000520:	00070313          	mv	t1,a4
    80000524:	00120213          	addi	tp,tp,1 # 1 <_start-0x7fffffff>
    80000528:	00200293          	li	t0,2
    8000052c:	fe5210e3          	bne	tp,t0,8000050c <test_27+0x8>
    80000530:	0010039b          	addiw	t2,zero,1
    80000534:	01f39393          	slli	t2,t2,0x1f
    80000538:	00138393          	addi	t2,t2,1
    8000053c:	2a731663          	bne	t1,t2,800007e8 <fail>

0000000080000540 <test_28>:
    80000540:	01c00193          	li	gp,28
    80000544:	00000213          	li	tp,0
    80000548:	00100093          	li	ra,1
    8000054c:	00700113          	li	sp,7
    80000550:	68209733          	binv	a4,ra,sp
    80000554:	00120213          	addi	tp,tp,1 # 1 <_start-0x7fffffff>
    80000558:	00200293          	li	t0,2
    8000055c:	fe5216e3          	bne	tp,t0,80000548 <test_28+0x8>
    80000560:	08100393          	li	t2,129
    80000564:	28771263          	bne	a4,t2,800007e8 <fail>

0000000080000568 <test_29>:
    80000568:	01d00193          	li	gp,29
    8000056c:	00000213          	li	tp,0
    80000570:	00100093          	li	ra,1
    80000574:	00e00113          	li	sp,14
    80000578:	00000013          	nop
    8000057c:	68209733          	binv	a4,ra,sp
    80000580:	00120213          	addi	tp,tp,1 # 1 <_start-0x7fffffff>
    80000584:	00200293          	li	t0,2
    80000588:	fe5214e3          	bne	tp,t0,80000570 <test_29+0x8>
    8000058c:	000043b7          	lui	t2,0x4
    80000590:	0013839b          	addiw	t2,t2,1 # 4001 <_start-0x7fffbfff>
    80000594:	24771a63          	bne	a4,t2,800007e8 <fail>

0000000080000598 <test_30>:
    80000598:	01e00193          	li	gp,30
    8000059c:	00000213          	li	tp,0
    800005a0:	00100093          	li	ra,1
    800005a4:	01f00113          	li	sp,31
    800005a8:	00000013          	nop
    800005ac:	00000013          	nop
    800005b0:	68209733          	binv	a4,ra,sp
    800005b4:	00120213          	addi	tp,tp,1 # 1 <_start-0x7fffffff>
    800005b8:	00200293          	li	t0,2
    800005bc:	fe5212e3          	bne	tp,t0,800005a0 <test_30+0x8>
    800005c0:	0010039b          	addiw	t2,zero,1
    800005c4:	01f39393          	slli	t2,t2,0x1f
    800005c8:	00138393          	addi	t2,t2,1
    800005cc:	20771e63          	bne	a4,t2,800007e8 <fail>

00000000800005d0 <test_31>:
    800005d0:	01f00193          	li	gp,31
    800005d4:	00000213          	li	tp,0
    800005d8:	00100093          	li	ra,1
    800005dc:	00000013          	nop
    800005e0:	00700113          	li	sp,7
    800005e4:	68209733          	binv	a4,ra,sp
    800005e8:	00120213          	addi	tp,tp,1 # 1 <_start-0x7fffffff>
    800005ec:	00200293          	li	t0,2
    800005f0:	fe5214e3          	bne	tp,t0,800005d8 <test_31+0x8>
    800005f4:	08100393          	li	t2,129
    800005f8:	1e771863          	bne	a4,t2,800007e8 <fail>

00000000800005fc <test_32>:
    800005fc:	02000193          	li	gp,32
    80000600:	00000213          	li	tp,0
    80000604:	00100093          	li	ra,1
    80000608:	00000013          	nop
    8000060c:	00e00113          	li	sp,14
    80000610:	00000013          	nop
    80000614:	68209733          	binv	a4,ra,sp
    80000618:	00120213          	addi	tp,tp,1 # 1 <_start-0x7fffffff>
    8000061c:	00200293          	li	t0,2
    80000620:	fe5212e3          	bne	tp,t0,80000604 <test_32+0x8>
    80000624:	000043b7          	lui	t2,0x4
    80000628:	0013839b          	addiw	t2,t2,1 # 4001 <_start-0x7fffbfff>
    8000062c:	1a771e63          	bne	a4,t2,800007e8 <fail>

0000000080000630 <test_33>:
    80000630:	02100193          	li	gp,33
    80000634:	00000213          	li	tp,0
    80000638:	00100093          	li	ra,1
    8000063c:	00000013          	nop
    80000640:	00000013          	nop
    80000644:	01f00113          	li	sp,31
    80000648:	68209733          	binv	a4,ra,sp
    8000064c:	00120213          	addi	tp,tp,1 # 1 <_start-0x7fffffff>
    80000650:	00200293          	li	t0,2
    80000654:	fe5212e3          	bne	tp,t0,80000638 <test_33+0x8>
    80000658:	0010039b          	addiw	t2,zero,1
    8000065c:	01f39393          	slli	t2,t2,0x1f
    80000660:	00138393          	addi	t2,t2,1
    80000664:	18771263          	bne	a4,t2,800007e8 <fail>

0000000080000668 <test_34>:
    80000668:	02200193          	li	gp,34
    8000066c:	00000213          	li	tp,0
    80000670:	00700113          	li	sp,7
    80000674:	00100093          	li	ra,1
    80000678:	68209733          	binv	a4,ra,sp
    8000067c:	00120213          	addi	tp,tp,1 # 1 <_start-0x7fffffff>
    80000680:	00200293          	li	t0,2
    80000684:	fe5216e3          	bne	tp,t0,80000670 <test_34+0x8>
    80000688:	08100393          	li	t2,129
    8000068c:	14771e63          	bne	a4,t2,800007e8 <fail>

0000000080000690 <test_35>:
    80000690:	02300193          	li	gp,35
    80000694:	00000213          	li	tp,0
    80000698:	00e00113          	li	sp,14
    8000069c:	00100093          	li	ra,1
    800006a0:	00000013          	nop
    800006a4:	68209733          	binv	a4,ra,sp
    800006a8:	00120213          	addi	tp,tp,1 # 1 <_start-0x7fffffff>
    800006ac:	00200293          	li	t0,2
    800006b0:	fe5214e3          	bne	tp,t0,80000698 <test_35+0x8>
    800006b4:	000043b7          	lui	t2,0x4
    800006b8:	0013839b          	addiw	t2,t2,1 # 4001 <_start-0x7fffbfff>
    800006bc:	12771663          	bne	a4,t2,800007e8 <fail>

00000000800006c0 <test_36>:
    800006c0:	02400193          	li	gp,36
    800006c4:	00000213          	li	tp,0
    800006c8:	01f00113          	li	sp,31
    800006cc:	00100093          	li	ra,1
    800006d0:	00000013          	nop
    800006d4:	00000013          	nop
    800006d8:	68209733          	binv	a4,ra,sp
    800006dc:	00120213          	addi	tp,tp,1 # 1 <_start-0x7fffffff>
    800006e0:	00200293          	li	t0,2
    800006e4:	fe5212e3          	bne	tp,t0,800006c8 <test_36+0x8>
    800006e8:	0010039b          	addiw	t2,zero,1
    800006ec:	01f39393          	slli	t2,t2,0x1f
    800006f0:	00138393          	addi	t2,t2,1
    800006f4:	0e771a63          	bne	a4,t2,800007e8 <fail>

00000000800006f8 <test_37>:
    800006f8:	02500193          	li	gp,37
    800006fc:	00000213          	li	tp,0
    80000700:	00700113          	li	sp,7
    80000704:	00000013          	nop
    80000708:	00100093          	li	ra,1
    8000070c:	68209733          	binv	a4,ra,sp
    80000710:	00120213          	addi	tp,tp,1 # 1 <_start-0x7fffffff>
    80000714:	00200293          	li	t0,2
    80000718:	fe5214e3          	bne	tp,t0,80000700 <test_37+0x8>
    8000071c:	08100393          	li	t2,129
    80000720:	0c771463          	bne	a4,t2,800007e8 <fail>

0000000080000724 <test_38>:
    80000724:	02600193          	li	gp,38
    80000728:	00000213          	li	tp,0
    8000072c:	00e00113          	li	sp,14
    80000730:	00000013          	nop
    80000734:	00100093          	li	ra,1
    80000738:	00000013          	nop
    8000073c:	68209733          	binv	a4,ra,sp
    80000740:	00120213          	addi	tp,tp,1 # 1 <_start-0x7fffffff>
    80000744:	00200293          	li	t0,2
    80000748:	fe5212e3          	bne	tp,t0,8000072c <test_38+0x8>
    8000074c:	000043b7          	lui	t2,0x4
    80000750:	0013839b          	addiw	t2,t2,1 # 4001 <_start-0x7fffbfff>
    80000754:	08771a63          	bne	a4,t2,800007e8 <fail>

0000000080000758 <test_39>:
    80000758:	02700193          	li	gp,39
    8000075c:	00000213          	li	tp,0
    80000760:	01f00113          	li	sp,31
    80000764:	00000013          	nop
    80000768:	00000013          	nop
    8000076c:	00100093          	li	ra,1
    80000770:	68209733          	binv	a4,ra,sp
    80000774:	00120213          	addi	tp,tp,1 # 1 <_start-0x7fffffff>
    80000778:	00200293          	li	t0,2
    8000077c:	fe5212e3          	bne	tp,t0,80000760 <test_39+0x8>
    80000780:	0010039b          	addiw	t2,zero,1
    80000784:	01f39393          	slli	t2,t2,0x1f
    80000788:	00138393          	addi	t2,t2,1
    8000078c:	04771e63          	bne	a4,t2,800007e8 <fail>

0000000080000790 <test_40>:
    80000790:	02800193          	li	gp,40
    80000794:	00f00093          	li	ra,15
    80000798:	68101133          	binv	sp,zero,ra
    8000079c:	000083b7          	lui	t2,0x8
    800007a0:	04711463          	bne	sp,t2,800007e8 <fail>

00000000800007a4 <test_41>:
    800007a4:	02900193          	li	gp,41
    800007a8:	02000093          	li	ra,32
    800007ac:	68009133          	binv	sp,ra,zero
    800007b0:	02100393          	li	t2,33
    800007b4:	02711a63          	bne	sp,t2,800007e8 <fail>

00000000800007b8 <test_42>:
    800007b8:	02a00193          	li	gp,42
    800007bc:	680010b3          	binv	ra,zero,zero
    800007c0:	00100393          	li	t2,1
    800007c4:	02709263          	bne	ra,t2,800007e8 <fail>

00000000800007c8 <test_43>:
    800007c8:	02b00193          	li	gp,43
    800007cc:	40000093          	li	ra,1024
    800007d0:	00001137          	lui	sp,0x1
    800007d4:	8001011b          	addiw	sp,sp,-2048 # 800 <_start-0x7ffff800>
    800007d8:	68209033          	binv	zero,ra,sp
    800007dc:	00000393          	li	t2,0
    800007e0:	00701463          	bne	zero,t2,800007e8 <fail>
    800007e4:	02301063          	bne	zero,gp,80000804 <pass>

00000000800007e8 <fail>:
    800007e8:	0ff0000f          	fence
    800007ec:	00018063          	beqz	gp,800007ec <fail+0x4>
    800007f0:	00119193          	slli	gp,gp,0x1
    800007f4:	0011e193          	ori	gp,gp,1
    800007f8:	05d00893          	li	a7,93
    800007fc:	00018513          	mv	a0,gp
    80000800:	00000073          	ecall

0000000080000804 <pass>:
    80000804:	0ff0000f          	fence
    80000808:	00100193          	li	gp,1
    8000080c:	05d00893          	li	a7,93
    80000810:	00000513          	li	a0,0
    80000814:	00000073          	ecall
    80000818:	c0001073          	unimp
    8000081c:	0000                	.insn	2, 0x
    8000081e:	0000                	.insn	2, 0x
    80000820:	0000                	.insn	2, 0x
    80000822:	0000                	.insn	2, 0x
    80000824:	0000                	.insn	2, 0x
    80000826:	0000                	.insn	2, 0x
    80000828:	0000                	.insn	2, 0x
    8000082a:	0000                	.insn	2, 0x
    8000082c:	0000                	.insn	2, 0x
    8000082e:	0000                	.insn	2, 0x
    80000830:	0000                	.insn	2, 0x
    80000832:	0000                	.insn	2, 0x
    80000834:	0000                	.insn	2, 0x
    80000836:	0000                	.insn	2, 0x
    80000838:	0000                	.insn	2, 0x
    8000083a:	0000                	.insn	2, 0x
