
rv64ui-p-sra:     file format elf64-littleriscv


Disassembly of section .text.init:

0000000080000000 <_start>:
    80000000:	0500006f          	j	80000050 <reset_vector>

0000000080000004 <trap_vector>:
    80000004:	34202f73          	csrr	t5,mcause
    80000008:	00800f93          	li	t6,8
    8000000c:	03ff0863          	beq	t5,t6,8000003c <write_tohost>
    80000010:	00900f93          	li	t6,9
    80000014:	03ff0463          	beq	t5,t6,8000003c <write_tohost>
    80000018:	00b00f93          	li	t6,11
    8000001c:	03ff0063          	beq	t5,t6,8000003c <write_tohost>
    80000020:	00000f13          	li	t5,0
    80000024:	000f0463          	beqz	t5,8000002c <trap_vector+0x28>
    80000028:	000f0067          	jr	t5
    8000002c:	34202f73          	csrr	t5,mcause
    80000030:	000f5463          	bgez	t5,80000038 <handle_exception>
    80000034:	0040006f          	j	80000038 <handle_exception>

0000000080000038 <handle_exception>:
    80000038:	5391e193          	ori	gp,gp,1337

000000008000003c <write_tohost>:
    8000003c:	00001f17          	auipc	t5,0x1
    80000040:	fc3f2223          	sw	gp,-60(t5) # 80001000 <tohost>
    80000044:	00001f17          	auipc	t5,0x1
    80000048:	fc0f2023          	sw	zero,-64(t5) # 80001004 <tohost+0x4>
    8000004c:	ff1ff06f          	j	8000003c <write_tohost>

0000000080000050 <reset_vector>:
    80000050:	00000093          	li	ra,0
    80000054:	00000113          	li	sp,0
    80000058:	00000193          	li	gp,0
    8000005c:	00000213          	li	tp,0
    80000060:	00000293          	li	t0,0
    80000064:	00000313          	li	t1,0
    80000068:	00000393          	li	t2,0
    8000006c:	00000413          	li	s0,0
    80000070:	00000493          	li	s1,0
    80000074:	00000513          	li	a0,0
    80000078:	00000593          	li	a1,0
    8000007c:	00000613          	li	a2,0
    80000080:	00000693          	li	a3,0
    80000084:	00000713          	li	a4,0
    80000088:	00000793          	li	a5,0
    8000008c:	00000813          	li	a6,0
    80000090:	00000893          	li	a7,0
    80000094:	00000913          	li	s2,0
    80000098:	00000993          	li	s3,0
    8000009c:	00000a13          	li	s4,0
    800000a0:	00000a93          	li	s5,0
    800000a4:	00000b13          	li	s6,0
    800000a8:	00000b93          	li	s7,0
    800000ac:	00000c13          	li	s8,0
    800000b0:	00000c93          	li	s9,0
    800000b4:	00000d13          	li	s10,0
    800000b8:	00000d93          	li	s11,0
    800000bc:	00000e13          	li	t3,0
    800000c0:	00000e93          	li	t4,0
    800000c4:	00000f13          	li	t5,0
    800000c8:	00000f93          	li	t6,0
    800000cc:	f1402573          	csrr	a0,mhartid
    800000d0:	00051063          	bnez	a0,800000d0 <reset_vector+0x80>
    800000d4:	00000297          	auipc	t0,0x0
    800000d8:	01028293          	addi	t0,t0,16 # 800000e4 <reset_vector+0x94>
    800000dc:	30529073          	csrw	mtvec,t0
    800000e0:	74445073          	csrwi	0x744,8
    800000e4:	00000297          	auipc	t0,0x0
    800000e8:	01028293          	addi	t0,t0,16 # 800000f4 <reset_vector+0xa4>
    800000ec:	30529073          	csrw	mtvec,t0
    800000f0:	18005073          	csrwi	satp,0
    800000f4:	00000297          	auipc	t0,0x0
    800000f8:	02428293          	addi	t0,t0,36 # 80000118 <reset_vector+0xc8>
    800000fc:	30529073          	csrw	mtvec,t0
    80000100:	0010029b          	addiw	t0,zero,1
    80000104:	03529293          	slli	t0,t0,0x35
    80000108:	fff28293          	addi	t0,t0,-1
    8000010c:	3b029073          	csrw	pmpaddr0,t0
    80000110:	01f00293          	li	t0,31
    80000114:	3a029073          	csrw	pmpcfg0,t0
    80000118:	30405073          	csrwi	mie,0
    8000011c:	00000297          	auipc	t0,0x0
    80000120:	01428293          	addi	t0,t0,20 # 80000130 <reset_vector+0xe0>
    80000124:	30529073          	csrw	mtvec,t0
    80000128:	30205073          	csrwi	medeleg,0
    8000012c:	30305073          	csrwi	mideleg,0
    80000130:	00000193          	li	gp,0
    80000134:	00000297          	auipc	t0,0x0
    80000138:	ed028293          	addi	t0,t0,-304 # 80000004 <trap_vector>
    8000013c:	30529073          	csrw	mtvec,t0
    80000140:	00100513          	li	a0,1
    80000144:	01f51513          	slli	a0,a0,0x1f
    80000148:	00055c63          	bgez	a0,80000160 <reset_vector+0x110>
    8000014c:	0ff0000f          	fence
    80000150:	00100193          	li	gp,1
    80000154:	05d00893          	li	a7,93
    80000158:	00000513          	li	a0,0
    8000015c:	00000073          	ecall
    80000160:	00000293          	li	t0,0
    80000164:	00028a63          	beqz	t0,80000178 <reset_vector+0x128>
    80000168:	10529073          	csrw	stvec,t0
    8000016c:	0000b2b7          	lui	t0,0xb
    80000170:	1092829b          	addiw	t0,t0,265 # b109 <_start-0x7fff4ef7>
    80000174:	30229073          	csrw	medeleg,t0
    80000178:	30005073          	csrwi	mstatus,0
    8000017c:	00000297          	auipc	t0,0x0
    80000180:	01428293          	addi	t0,t0,20 # 80000190 <test_2>
    80000184:	34129073          	csrw	mepc,t0
    80000188:	f1402573          	csrr	a0,mhartid
    8000018c:	30200073          	mret

0000000080000190 <test_2>:
    80000190:	00200193          	li	gp,2
    80000194:	800005b7          	lui	a1,0x80000
    80000198:	00000613          	li	a2,0
    8000019c:	40c5d733          	sra	a4,a1,a2
    800001a0:	800003b7          	lui	t2,0x80000
    800001a4:	58771463          	bne	a4,t2,8000072c <fail>

00000000800001a8 <test_3>:
    800001a8:	00300193          	li	gp,3
    800001ac:	800005b7          	lui	a1,0x80000
    800001b0:	00100613          	li	a2,1
    800001b4:	40c5d733          	sra	a4,a1,a2
    800001b8:	c00003b7          	lui	t2,0xc0000
    800001bc:	56771863          	bne	a4,t2,8000072c <fail>

00000000800001c0 <test_4>:
    800001c0:	00400193          	li	gp,4
    800001c4:	800005b7          	lui	a1,0x80000
    800001c8:	00700613          	li	a2,7
    800001cc:	40c5d733          	sra	a4,a1,a2
    800001d0:	ff0003b7          	lui	t2,0xff000
    800001d4:	54771c63          	bne	a4,t2,8000072c <fail>

00000000800001d8 <test_5>:
    800001d8:	00500193          	li	gp,5
    800001dc:	800005b7          	lui	a1,0x80000
    800001e0:	00e00613          	li	a2,14
    800001e4:	40c5d733          	sra	a4,a1,a2
    800001e8:	fffe03b7          	lui	t2,0xfffe0
    800001ec:	54771063          	bne	a4,t2,8000072c <fail>

00000000800001f0 <test_6>:
    800001f0:	00600193          	li	gp,6
    800001f4:	800005b7          	lui	a1,0x80000
    800001f8:	0015859b          	addiw	a1,a1,1 # ffffffff80000001 <_end+0xfffffffeffffe001>
    800001fc:	01f00613          	li	a2,31
    80000200:	40c5d733          	sra	a4,a1,a2
    80000204:	fff00393          	li	t2,-1
    80000208:	52771263          	bne	a4,t2,8000072c <fail>

000000008000020c <test_7>:
    8000020c:	00700193          	li	gp,7
    80000210:	800005b7          	lui	a1,0x80000
    80000214:	fff5859b          	addiw	a1,a1,-1 # 7fffffff <_start-0x1>
    80000218:	00000613          	li	a2,0
    8000021c:	40c5d733          	sra	a4,a1,a2
    80000220:	800003b7          	lui	t2,0x80000
    80000224:	fff3839b          	addiw	t2,t2,-1 # 7fffffff <_start-0x1>
    80000228:	50771263          	bne	a4,t2,8000072c <fail>

000000008000022c <test_8>:
    8000022c:	00800193          	li	gp,8
    80000230:	800005b7          	lui	a1,0x80000
    80000234:	fff5859b          	addiw	a1,a1,-1 # 7fffffff <_start-0x1>
    80000238:	00100613          	li	a2,1
    8000023c:	40c5d733          	sra	a4,a1,a2
    80000240:	400003b7          	lui	t2,0x40000
    80000244:	fff3839b          	addiw	t2,t2,-1 # 3fffffff <_start-0x40000001>
    80000248:	4e771263          	bne	a4,t2,8000072c <fail>

000000008000024c <test_9>:
    8000024c:	00900193          	li	gp,9
    80000250:	800005b7          	lui	a1,0x80000
    80000254:	fff5859b          	addiw	a1,a1,-1 # 7fffffff <_start-0x1>
    80000258:	00700613          	li	a2,7
    8000025c:	40c5d733          	sra	a4,a1,a2
    80000260:	010003b7          	lui	t2,0x1000
    80000264:	fff3839b          	addiw	t2,t2,-1 # ffffff <_start-0x7f000001>
    80000268:	4c771263          	bne	a4,t2,8000072c <fail>

000000008000026c <test_10>:
    8000026c:	00a00193          	li	gp,10
    80000270:	800005b7          	lui	a1,0x80000
    80000274:	fff5859b          	addiw	a1,a1,-1 # 7fffffff <_start-0x1>
    80000278:	00e00613          	li	a2,14
    8000027c:	40c5d733          	sra	a4,a1,a2
    80000280:	000203b7          	lui	t2,0x20
    80000284:	fff3839b          	addiw	t2,t2,-1 # 1ffff <_start-0x7ffe0001>
    80000288:	4a771263          	bne	a4,t2,8000072c <fail>

000000008000028c <test_11>:
    8000028c:	00b00193          	li	gp,11
    80000290:	800005b7          	lui	a1,0x80000
    80000294:	fff5859b          	addiw	a1,a1,-1 # 7fffffff <_start-0x1>
    80000298:	01f00613          	li	a2,31
    8000029c:	40c5d733          	sra	a4,a1,a2
    800002a0:	00000393          	li	t2,0
    800002a4:	48771463          	bne	a4,t2,8000072c <fail>

00000000800002a8 <test_12>:
    800002a8:	00c00193          	li	gp,12
    800002ac:	818185b7          	lui	a1,0x81818
    800002b0:	1815859b          	addiw	a1,a1,385 # ffffffff81818181 <_end+0xffffffff01816181>
    800002b4:	00000613          	li	a2,0
    800002b8:	40c5d733          	sra	a4,a1,a2
    800002bc:	818183b7          	lui	t2,0x81818
    800002c0:	1813839b          	addiw	t2,t2,385 # ffffffff81818181 <_end+0xffffffff01816181>
    800002c4:	46771463          	bne	a4,t2,8000072c <fail>

00000000800002c8 <test_13>:
    800002c8:	00d00193          	li	gp,13
    800002cc:	818185b7          	lui	a1,0x81818
    800002d0:	1815859b          	addiw	a1,a1,385 # ffffffff81818181 <_end+0xffffffff01816181>
    800002d4:	00100613          	li	a2,1
    800002d8:	40c5d733          	sra	a4,a1,a2
    800002dc:	c0c0c3b7          	lui	t2,0xc0c0c
    800002e0:	0c03839b          	addiw	t2,t2,192 # ffffffffc0c0c0c0 <_end+0xffffffff40c0a0c0>
    800002e4:	44771463          	bne	a4,t2,8000072c <fail>

00000000800002e8 <test_14>:
    800002e8:	00e00193          	li	gp,14
    800002ec:	818185b7          	lui	a1,0x81818
    800002f0:	1815859b          	addiw	a1,a1,385 # ffffffff81818181 <_end+0xffffffff01816181>
    800002f4:	00700613          	li	a2,7
    800002f8:	40c5d733          	sra	a4,a1,a2
    800002fc:	ff0303b7          	lui	t2,0xff030
    80000300:	3033839b          	addiw	t2,t2,771 # ffffffffff030303 <_end+0xffffffff7f02e303>
    80000304:	42771463          	bne	a4,t2,8000072c <fail>

0000000080000308 <test_15>:
    80000308:	00f00193          	li	gp,15
    8000030c:	818185b7          	lui	a1,0x81818
    80000310:	1815859b          	addiw	a1,a1,385 # ffffffff81818181 <_end+0xffffffff01816181>
    80000314:	00e00613          	li	a2,14
    80000318:	40c5d733          	sra	a4,a1,a2
    8000031c:	fffe03b7          	lui	t2,0xfffe0
    80000320:	6063839b          	addiw	t2,t2,1542 # fffffffffffe0606 <_end+0xffffffff7ffde606>
    80000324:	40771463          	bne	a4,t2,8000072c <fail>

0000000080000328 <test_16>:
    80000328:	01000193          	li	gp,16
    8000032c:	818185b7          	lui	a1,0x81818
    80000330:	1815859b          	addiw	a1,a1,385 # ffffffff81818181 <_end+0xffffffff01816181>
    80000334:	01f00613          	li	a2,31
    80000338:	40c5d733          	sra	a4,a1,a2
    8000033c:	fff00393          	li	t2,-1
    80000340:	3e771663          	bne	a4,t2,8000072c <fail>

0000000080000344 <test_17>:
    80000344:	01100193          	li	gp,17
    80000348:	818185b7          	lui	a1,0x81818
    8000034c:	1815859b          	addiw	a1,a1,385 # ffffffff81818181 <_end+0xffffffff01816181>
    80000350:	fc000613          	li	a2,-64
    80000354:	40c5d733          	sra	a4,a1,a2
    80000358:	818183b7          	lui	t2,0x81818
    8000035c:	1813839b          	addiw	t2,t2,385 # ffffffff81818181 <_end+0xffffffff01816181>
    80000360:	3c771663          	bne	a4,t2,8000072c <fail>

0000000080000364 <test_18>:
    80000364:	01200193          	li	gp,18
    80000368:	818185b7          	lui	a1,0x81818
    8000036c:	1815859b          	addiw	a1,a1,385 # ffffffff81818181 <_end+0xffffffff01816181>
    80000370:	fc100613          	li	a2,-63
    80000374:	40c5d733          	sra	a4,a1,a2
    80000378:	c0c0c3b7          	lui	t2,0xc0c0c
    8000037c:	0c03839b          	addiw	t2,t2,192 # ffffffffc0c0c0c0 <_end+0xffffffff40c0a0c0>
    80000380:	3a771663          	bne	a4,t2,8000072c <fail>

0000000080000384 <test_19>:
    80000384:	01300193          	li	gp,19
    80000388:	818185b7          	lui	a1,0x81818
    8000038c:	1815859b          	addiw	a1,a1,385 # ffffffff81818181 <_end+0xffffffff01816181>
    80000390:	fc700613          	li	a2,-57
    80000394:	40c5d733          	sra	a4,a1,a2
    80000398:	ff0303b7          	lui	t2,0xff030
    8000039c:	3033839b          	addiw	t2,t2,771 # ffffffffff030303 <_end+0xffffffff7f02e303>
    800003a0:	38771663          	bne	a4,t2,8000072c <fail>

00000000800003a4 <test_20>:
    800003a4:	01400193          	li	gp,20
    800003a8:	818185b7          	lui	a1,0x81818
    800003ac:	1815859b          	addiw	a1,a1,385 # ffffffff81818181 <_end+0xffffffff01816181>
    800003b0:	fce00613          	li	a2,-50
    800003b4:	40c5d733          	sra	a4,a1,a2
    800003b8:	fffe03b7          	lui	t2,0xfffe0
    800003bc:	6063839b          	addiw	t2,t2,1542 # fffffffffffe0606 <_end+0xffffffff7ffde606>
    800003c0:	36771663          	bne	a4,t2,8000072c <fail>

00000000800003c4 <test_21>:
    800003c4:	01500193          	li	gp,21
    800003c8:	818185b7          	lui	a1,0x81818
    800003cc:	1815859b          	addiw	a1,a1,385 # ffffffff81818181 <_end+0xffffffff01816181>
    800003d0:	fff00613          	li	a2,-1
    800003d4:	40c5d733          	sra	a4,a1,a2
    800003d8:	fff00393          	li	t2,-1
    800003dc:	34771863          	bne	a4,t2,8000072c <fail>

00000000800003e0 <test_22>:
    800003e0:	01600193          	li	gp,22
    800003e4:	800005b7          	lui	a1,0x80000
    800003e8:	00700613          	li	a2,7
    800003ec:	40c5d5b3          	sra	a1,a1,a2
    800003f0:	ff0003b7          	lui	t2,0xff000
    800003f4:	32759c63          	bne	a1,t2,8000072c <fail>

00000000800003f8 <test_23>:
    800003f8:	01700193          	li	gp,23
    800003fc:	800005b7          	lui	a1,0x80000
    80000400:	00e00613          	li	a2,14
    80000404:	40c5d633          	sra	a2,a1,a2
    80000408:	fffe03b7          	lui	t2,0xfffe0
    8000040c:	32761063          	bne	a2,t2,8000072c <fail>

0000000080000410 <test_24>:
    80000410:	01800193          	li	gp,24
    80000414:	00700593          	li	a1,7
    80000418:	40b5d5b3          	sra	a1,a1,a1
    8000041c:	00000393          	li	t2,0
    80000420:	30759663          	bne	a1,t2,8000072c <fail>

0000000080000424 <test_25>:
    80000424:	01900193          	li	gp,25
    80000428:	00000213          	li	tp,0
    8000042c:	800000b7          	lui	ra,0x80000
    80000430:	00700113          	li	sp,7
    80000434:	4020d733          	sra	a4,ra,sp
    80000438:	00070313          	mv	t1,a4
    8000043c:	00120213          	addi	tp,tp,1 # 1 <_start-0x7fffffff>
    80000440:	00200293          	li	t0,2
    80000444:	fe5214e3          	bne	tp,t0,8000042c <test_25+0x8>
    80000448:	ff0003b7          	lui	t2,0xff000
    8000044c:	2e731063          	bne	t1,t2,8000072c <fail>

0000000080000450 <test_26>:
    80000450:	01a00193          	li	gp,26
    80000454:	00000213          	li	tp,0
    80000458:	800000b7          	lui	ra,0x80000
    8000045c:	00e00113          	li	sp,14
    80000460:	4020d733          	sra	a4,ra,sp
    80000464:	00000013          	nop
    80000468:	00070313          	mv	t1,a4
    8000046c:	00120213          	addi	tp,tp,1 # 1 <_start-0x7fffffff>
    80000470:	00200293          	li	t0,2
    80000474:	fe5212e3          	bne	tp,t0,80000458 <test_26+0x8>
    80000478:	fffe03b7          	lui	t2,0xfffe0
    8000047c:	2a731863          	bne	t1,t2,8000072c <fail>

0000000080000480 <test_27>:
    80000480:	01b00193          	li	gp,27
    80000484:	00000213          	li	tp,0
    80000488:	800000b7          	lui	ra,0x80000
    8000048c:	01f00113          	li	sp,31
    80000490:	4020d733          	sra	a4,ra,sp
    80000494:	00000013          	nop
    80000498:	00000013          	nop
    8000049c:	00070313          	mv	t1,a4
    800004a0:	00120213          	addi	tp,tp,1 # 1 <_start-0x7fffffff>
    800004a4:	00200293          	li	t0,2
    800004a8:	fe5210e3          	bne	tp,t0,80000488 <test_27+0x8>
    800004ac:	fff00393          	li	t2,-1
    800004b0:	26731e63          	bne	t1,t2,8000072c <fail>

00000000800004b4 <test_28>:
    800004b4:	01c00193          	li	gp,28
    800004b8:	00000213          	li	tp,0
    800004bc:	800000b7          	lui	ra,0x80000
    800004c0:	00700113          	li	sp,7
    800004c4:	4020d733          	sra	a4,ra,sp
    800004c8:	00120213          	addi	tp,tp,1 # 1 <_start-0x7fffffff>
    800004cc:	00200293          	li	t0,2
    800004d0:	fe5216e3          	bne	tp,t0,800004bc <test_28+0x8>
    800004d4:	ff0003b7          	lui	t2,0xff000
    800004d8:	24771a63          	bne	a4,t2,8000072c <fail>

00000000800004dc <test_29>:
    800004dc:	01d00193          	li	gp,29
    800004e0:	00000213          	li	tp,0
    800004e4:	800000b7          	lui	ra,0x80000
    800004e8:	00e00113          	li	sp,14
    800004ec:	00000013          	nop
    800004f0:	4020d733          	sra	a4,ra,sp
    800004f4:	00120213          	addi	tp,tp,1 # 1 <_start-0x7fffffff>
    800004f8:	00200293          	li	t0,2
    800004fc:	fe5214e3          	bne	tp,t0,800004e4 <test_29+0x8>
    80000500:	fffe03b7          	lui	t2,0xfffe0
    80000504:	22771463          	bne	a4,t2,8000072c <fail>

0000000080000508 <test_30>:
    80000508:	01e00193          	li	gp,30
    8000050c:	00000213          	li	tp,0
    80000510:	800000b7          	lui	ra,0x80000
    80000514:	01f00113          	li	sp,31
    80000518:	00000013          	nop
    8000051c:	00000013          	nop
    80000520:	4020d733          	sra	a4,ra,sp
    80000524:	00120213          	addi	tp,tp,1 # 1 <_start-0x7fffffff>
    80000528:	00200293          	li	t0,2
    8000052c:	fe5212e3          	bne	tp,t0,80000510 <test_30+0x8>
    80000530:	fff00393          	li	t2,-1
    80000534:	1e771c63          	bne	a4,t2,8000072c <fail>

0000000080000538 <test_31>:
    80000538:	01f00193          	li	gp,31
    8000053c:	00000213          	li	tp,0
    80000540:	800000b7          	lui	ra,0x80000
    80000544:	00000013          	nop
    80000548:	00700113          	li	sp,7
    8000054c:	4020d733          	sra	a4,ra,sp
    80000550:	00120213          	addi	tp,tp,1 # 1 <_start-0x7fffffff>
    80000554:	00200293          	li	t0,2
    80000558:	fe5214e3          	bne	tp,t0,80000540 <test_31+0x8>
    8000055c:	ff0003b7          	lui	t2,0xff000
    80000560:	1c771663          	bne	a4,t2,8000072c <fail>

0000000080000564 <test_32>:
    80000564:	02000193          	li	gp,32
    80000568:	00000213          	li	tp,0
    8000056c:	800000b7          	lui	ra,0x80000
    80000570:	00000013          	nop
    80000574:	00e00113          	li	sp,14
    80000578:	00000013          	nop
    8000057c:	4020d733          	sra	a4,ra,sp
    80000580:	00120213          	addi	tp,tp,1 # 1 <_start-0x7fffffff>
    80000584:	00200293          	li	t0,2
    80000588:	fe5212e3          	bne	tp,t0,8000056c <test_32+0x8>
    8000058c:	fffe03b7          	lui	t2,0xfffe0
    80000590:	18771e63          	bne	a4,t2,8000072c <fail>

0000000080000594 <test_33>:
    80000594:	02100193          	li	gp,33
    80000598:	00000213          	li	tp,0
    8000059c:	800000b7          	lui	ra,0x80000
    800005a0:	00000013          	nop
    800005a4:	00000013          	nop
    800005a8:	01f00113          	li	sp,31
    800005ac:	4020d733          	sra	a4,ra,sp
    800005b0:	00120213          	addi	tp,tp,1 # 1 <_start-0x7fffffff>
    800005b4:	00200293          	li	t0,2
    800005b8:	fe5212e3          	bne	tp,t0,8000059c <test_33+0x8>
    800005bc:	fff00393          	li	t2,-1
    800005c0:	16771663          	bne	a4,t2,8000072c <fail>

00000000800005c4 <test_34>:
    800005c4:	02200193          	li	gp,34
    800005c8:	00000213          	li	tp,0
    800005cc:	00700113          	li	sp,7
    800005d0:	800000b7          	lui	ra,0x80000
    800005d4:	4020d733          	sra	a4,ra,sp
    800005d8:	00120213          	addi	tp,tp,1 # 1 <_start-0x7fffffff>
    800005dc:	00200293          	li	t0,2
    800005e0:	fe5216e3          	bne	tp,t0,800005cc <test_34+0x8>
    800005e4:	ff0003b7          	lui	t2,0xff000
    800005e8:	14771263          	bne	a4,t2,8000072c <fail>

00000000800005ec <test_35>:
    800005ec:	02300193          	li	gp,35
    800005f0:	00000213          	li	tp,0
    800005f4:	00e00113          	li	sp,14
    800005f8:	800000b7          	lui	ra,0x80000
    800005fc:	00000013          	nop
    80000600:	4020d733          	sra	a4,ra,sp
    80000604:	00120213          	addi	tp,tp,1 # 1 <_start-0x7fffffff>
    80000608:	00200293          	li	t0,2
    8000060c:	fe5214e3          	bne	tp,t0,800005f4 <test_35+0x8>
    80000610:	fffe03b7          	lui	t2,0xfffe0
    80000614:	10771c63          	bne	a4,t2,8000072c <fail>

0000000080000618 <test_36>:
    80000618:	02400193          	li	gp,36
    8000061c:	00000213          	li	tp,0
    80000620:	01f00113          	li	sp,31
    80000624:	800000b7          	lui	ra,0x80000
    80000628:	00000013          	nop
    8000062c:	00000013          	nop
    80000630:	4020d733          	sra	a4,ra,sp
    80000634:	00120213          	addi	tp,tp,1 # 1 <_start-0x7fffffff>
    80000638:	00200293          	li	t0,2
    8000063c:	fe5212e3          	bne	tp,t0,80000620 <test_36+0x8>
    80000640:	fff00393          	li	t2,-1
    80000644:	0e771463          	bne	a4,t2,8000072c <fail>

0000000080000648 <test_37>:
    80000648:	02500193          	li	gp,37
    8000064c:	00000213          	li	tp,0
    80000650:	00700113          	li	sp,7
    80000654:	00000013          	nop
    80000658:	800000b7          	lui	ra,0x80000
    8000065c:	4020d733          	sra	a4,ra,sp
    80000660:	00120213          	addi	tp,tp,1 # 1 <_start-0x7fffffff>
    80000664:	00200293          	li	t0,2
    80000668:	fe5214e3          	bne	tp,t0,80000650 <test_37+0x8>
    8000066c:	ff0003b7          	lui	t2,0xff000
    80000670:	0a771e63          	bne	a4,t2,8000072c <fail>

0000000080000674 <test_38>:
    80000674:	02600193          	li	gp,38
    80000678:	00000213          	li	tp,0
    8000067c:	00e00113          	li	sp,14
    80000680:	00000013          	nop
    80000684:	800000b7          	lui	ra,0x80000
    80000688:	00000013          	nop
    8000068c:	4020d733          	sra	a4,ra,sp
    80000690:	00120213          	addi	tp,tp,1 # 1 <_start-0x7fffffff>
    80000694:	00200293          	li	t0,2
    80000698:	fe5212e3          	bne	tp,t0,8000067c <test_38+0x8>
    8000069c:	fffe03b7          	lui	t2,0xfffe0
    800006a0:	08771663          	bne	a4,t2,8000072c <fail>

00000000800006a4 <test_39>:
    800006a4:	02700193          	li	gp,39
    800006a8:	00000213          	li	tp,0
    800006ac:	01f00113          	li	sp,31
    800006b0:	00000013          	nop
    800006b4:	00000013          	nop
    800006b8:	800000b7          	lui	ra,0x80000
    800006bc:	4020d733          	sra	a4,ra,sp
    800006c0:	00120213          	addi	tp,tp,1 # 1 <_start-0x7fffffff>
    800006c4:	00200293          	li	t0,2
    800006c8:	fe5212e3          	bne	tp,t0,800006ac <test_39+0x8>
    800006cc:	fff00393          	li	t2,-1
    800006d0:	04771e63          	bne	a4,t2,8000072c <fail>

00000000800006d4 <test_40>:
    800006d4:	02800193          	li	gp,40
    800006d8:	00f00093          	li	ra,15
    800006dc:	40105133          	sra	sp,zero,ra
    800006e0:	00000393          	li	t2,0
    800006e4:	04711463          	bne	sp,t2,8000072c <fail>

00000000800006e8 <test_41>:
    800006e8:	02900193          	li	gp,41
    800006ec:	02000093          	li	ra,32
    800006f0:	4000d133          	sra	sp,ra,zero
    800006f4:	02000393          	li	t2,32
    800006f8:	02711a63          	bne	sp,t2,8000072c <fail>

00000000800006fc <test_42>:
    800006fc:	02a00193          	li	gp,42
    80000700:	400050b3          	sra	ra,zero,zero
    80000704:	00000393          	li	t2,0
    80000708:	02709263          	bne	ra,t2,8000072c <fail>

000000008000070c <test_43>:
    8000070c:	02b00193          	li	gp,43
    80000710:	40000093          	li	ra,1024
    80000714:	00001137          	lui	sp,0x1
    80000718:	8001011b          	addiw	sp,sp,-2048 # 800 <_start-0x7ffff800>
    8000071c:	4020d033          	sra	zero,ra,sp
    80000720:	00000393          	li	t2,0
    80000724:	00701463          	bne	zero,t2,8000072c <fail>
    80000728:	02301063          	bne	zero,gp,80000748 <pass>

000000008000072c <fail>:
    8000072c:	0ff0000f          	fence
    80000730:	00018063          	beqz	gp,80000730 <fail+0x4>
    80000734:	00119193          	slli	gp,gp,0x1
    80000738:	0011e193          	ori	gp,gp,1
    8000073c:	05d00893          	li	a7,93
    80000740:	00018513          	mv	a0,gp
    80000744:	00000073          	ecall

0000000080000748 <pass>:
    80000748:	0ff0000f          	fence
    8000074c:	00100193          	li	gp,1
    80000750:	05d00893          	li	a7,93
    80000754:	00000513          	li	a0,0
    80000758:	00000073          	ecall
    8000075c:	c0001073          	unimp
    80000760:	0000                	.insn	2, 0x
    80000762:	0000                	.insn	2, 0x
    80000764:	0000                	.insn	2, 0x
    80000766:	0000                	.insn	2, 0x
    80000768:	0000                	.insn	2, 0x
    8000076a:	0000                	.insn	2, 0x
    8000076c:	0000                	.insn	2, 0x
    8000076e:	0000                	.insn	2, 0x
    80000770:	0000                	.insn	2, 0x
    80000772:	0000                	.insn	2, 0x
    80000774:	0000                	.insn	2, 0x
    80000776:	0000                	.insn	2, 0x
    80000778:	0000                	.insn	2, 0x
    8000077a:	0000                	.insn	2, 0x
