
rv64uzbs-p-bext:     file format elf64-littleriscv


Disassembly of section .text.init:

0000000080000000 <_start>:
    80000000:	0500006f          	j	80000050 <reset_vector>

0000000080000004 <trap_vector>:
    80000004:	34202f73          	csrr	t5,mcause
    80000008:	00800f93          	li	t6,8
    8000000c:	03ff0863          	beq	t5,t6,8000003c <write_tohost>
    80000010:	00900f93          	li	t6,9
    80000014:	03ff0463          	beq	t5,t6,8000003c <write_tohost>
    80000018:	00b00f93          	li	t6,11
    8000001c:	03ff0063          	beq	t5,t6,8000003c <write_tohost>
    80000020:	00000f13          	li	t5,0
    80000024:	000f0463          	beqz	t5,8000002c <trap_vector+0x28>
    80000028:	000f0067          	jr	t5
    8000002c:	34202f73          	csrr	t5,mcause
    80000030:	000f5463          	bgez	t5,80000038 <handle_exception>
    80000034:	0040006f          	j	80000038 <handle_exception>

0000000080000038 <handle_exception>:
    80000038:	5391e193          	ori	gp,gp,1337

000000008000003c <write_tohost>:
    8000003c:	00001f17          	auipc	t5,0x1
    80000040:	fc3f2223          	sw	gp,-60(t5) # 80001000 <tohost>
    80000044:	00001f17          	auipc	t5,0x1
    80000048:	fc0f2023          	sw	zero,-64(t5) # 80001004 <tohost+0x4>
    8000004c:	ff1ff06f          	j	8000003c <write_tohost>

0000000080000050 <reset_vector>:
    80000050:	00000093          	li	ra,0
    80000054:	00000113          	li	sp,0
    80000058:	00000193          	li	gp,0
    8000005c:	00000213          	li	tp,0
    80000060:	00000293          	li	t0,0
    80000064:	00000313          	li	t1,0
    80000068:	00000393          	li	t2,0
    8000006c:	00000413          	li	s0,0
    80000070:	00000493          	li	s1,0
    80000074:	00000513          	li	a0,0
    80000078:	00000593          	li	a1,0
    8000007c:	00000613          	li	a2,0
    80000080:	00000693          	li	a3,0
    80000084:	00000713          	li	a4,0
    80000088:	00000793          	li	a5,0
    8000008c:	00000813          	li	a6,0
    80000090:	00000893          	li	a7,0
    80000094:	00000913          	li	s2,0
    80000098:	00000993          	li	s3,0
    8000009c:	00000a13          	li	s4,0
    800000a0:	00000a93          	li	s5,0
    800000a4:	00000b13          	li	s6,0
    800000a8:	00000b93          	li	s7,0
    800000ac:	00000c13          	li	s8,0
    800000b0:	00000c93          	li	s9,0
    800000b4:	00000d13          	li	s10,0
    800000b8:	00000d93          	li	s11,0
    800000bc:	00000e13          	li	t3,0
    800000c0:	00000e93          	li	t4,0
    800000c4:	00000f13          	li	t5,0
    800000c8:	00000f93          	li	t6,0
    800000cc:	f1402573          	csrr	a0,mhartid
    800000d0:	00051063          	bnez	a0,800000d0 <reset_vector+0x80>
    800000d4:	00000297          	auipc	t0,0x0
    800000d8:	01028293          	addi	t0,t0,16 # 800000e4 <reset_vector+0x94>
    800000dc:	30529073          	csrw	mtvec,t0
    800000e0:	74445073          	csrwi	0x744,8
    800000e4:	00000297          	auipc	t0,0x0
    800000e8:	01028293          	addi	t0,t0,16 # 800000f4 <reset_vector+0xa4>
    800000ec:	30529073          	csrw	mtvec,t0
    800000f0:	18005073          	csrwi	satp,0
    800000f4:	00000297          	auipc	t0,0x0
    800000f8:	02428293          	addi	t0,t0,36 # 80000118 <reset_vector+0xc8>
    800000fc:	30529073          	csrw	mtvec,t0
    80000100:	0010029b          	addiw	t0,zero,1
    80000104:	03529293          	slli	t0,t0,0x35
    80000108:	fff28293          	addi	t0,t0,-1
    8000010c:	3b029073          	csrw	pmpaddr0,t0
    80000110:	01f00293          	li	t0,31
    80000114:	3a029073          	csrw	pmpcfg0,t0
    80000118:	30405073          	csrwi	mie,0
    8000011c:	00000297          	auipc	t0,0x0
    80000120:	01428293          	addi	t0,t0,20 # 80000130 <reset_vector+0xe0>
    80000124:	30529073          	csrw	mtvec,t0
    80000128:	30205073          	csrwi	medeleg,0
    8000012c:	30305073          	csrwi	mideleg,0
    80000130:	00000193          	li	gp,0
    80000134:	00000297          	auipc	t0,0x0
    80000138:	ed028293          	addi	t0,t0,-304 # 80000004 <trap_vector>
    8000013c:	30529073          	csrw	mtvec,t0
    80000140:	00100513          	li	a0,1
    80000144:	01f51513          	slli	a0,a0,0x1f
    80000148:	00055c63          	bgez	a0,80000160 <reset_vector+0x110>
    8000014c:	0ff0000f          	fence
    80000150:	00100193          	li	gp,1
    80000154:	05d00893          	li	a7,93
    80000158:	00000513          	li	a0,0
    8000015c:	00000073          	ecall
    80000160:	00000293          	li	t0,0
    80000164:	00028a63          	beqz	t0,80000178 <reset_vector+0x128>
    80000168:	10529073          	csrw	stvec,t0
    8000016c:	0000b2b7          	lui	t0,0xb
    80000170:	1092829b          	addiw	t0,t0,265 # b109 <_start-0x7fff4ef7>
    80000174:	30229073          	csrw	medeleg,t0
    80000178:	30005073          	csrwi	mstatus,0
    8000017c:	00000297          	auipc	t0,0x0
    80000180:	01428293          	addi	t0,t0,20 # 80000190 <test_2>
    80000184:	34129073          	csrw	mepc,t0
    80000188:	f1402573          	csrr	a0,mhartid
    8000018c:	30200073          	mret

0000000080000190 <test_2>:
    80000190:	00200193          	li	gp,2
    80000194:	000105b7          	lui	a1,0x10
    80000198:	f015859b          	addiw	a1,a1,-255 # ff01 <_start-0x7fff00ff>
    8000019c:	01059593          	slli	a1,a1,0x10
    800001a0:	f0058593          	addi	a1,a1,-256
    800001a4:	00000613          	li	a2,0
    800001a8:	48c5d733          	bext	a4,a1,a2
    800001ac:	00000393          	li	t2,0
    800001b0:	64771663          	bne	a4,t2,800007fc <fail>

00000000800001b4 <test_3>:
    800001b4:	00300193          	li	gp,3
    800001b8:	00ff05b7          	lui	a1,0xff0
    800001bc:	0ff5859b          	addiw	a1,a1,255 # ff00ff <_start-0x7f00ff01>
    800001c0:	00100613          	li	a2,1
    800001c4:	48c5d733          	bext	a4,a1,a2
    800001c8:	00100393          	li	t2,1
    800001cc:	62771863          	bne	a4,t2,800007fc <fail>

00000000800001d0 <test_4>:
    800001d0:	00400193          	li	gp,4
    800001d4:	000105b7          	lui	a1,0x10
    800001d8:	f015859b          	addiw	a1,a1,-255 # ff01 <_start-0x7fff00ff>
    800001dc:	01059593          	slli	a1,a1,0x10
    800001e0:	f0058593          	addi	a1,a1,-256
    800001e4:	00800613          	li	a2,8
    800001e8:	48c5d733          	bext	a4,a1,a2
    800001ec:	00100393          	li	t2,1
    800001f0:	60771663          	bne	a4,t2,800007fc <fail>

00000000800001f4 <test_5>:
    800001f4:	00500193          	li	gp,5
    800001f8:	0ff015b7          	lui	a1,0xff01
    800001fc:	ff05859b          	addiw	a1,a1,-16 # ff00ff0 <_start-0x700ff010>
    80000200:	00e00613          	li	a2,14
    80000204:	48c5d733          	bext	a4,a1,a2
    80000208:	00000393          	li	t2,0
    8000020c:	5e771863          	bne	a4,t2,800007fc <fail>

0000000080000210 <test_6>:
    80000210:	00600193          	li	gp,6
    80000214:	0ff015b7          	lui	a1,0xff01
    80000218:	ff05859b          	addiw	a1,a1,-16 # ff00ff0 <_start-0x700ff010>
    8000021c:	01b00613          	li	a2,27
    80000220:	48c5d733          	bext	a4,a1,a2
    80000224:	00100393          	li	t2,1
    80000228:	5c771a63          	bne	a4,t2,800007fc <fail>

000000008000022c <test_7>:
    8000022c:	00700193          	li	gp,7
    80000230:	fff00593          	li	a1,-1
    80000234:	00000613          	li	a2,0
    80000238:	48c5d733          	bext	a4,a1,a2
    8000023c:	00100393          	li	t2,1
    80000240:	5a771e63          	bne	a4,t2,800007fc <fail>

0000000080000244 <test_8>:
    80000244:	00800193          	li	gp,8
    80000248:	fff00593          	li	a1,-1
    8000024c:	00100613          	li	a2,1
    80000250:	48c5d733          	bext	a4,a1,a2
    80000254:	00100393          	li	t2,1
    80000258:	5a771263          	bne	a4,t2,800007fc <fail>

000000008000025c <test_9>:
    8000025c:	00900193          	li	gp,9
    80000260:	fff00593          	li	a1,-1
    80000264:	00700613          	li	a2,7
    80000268:	48c5d733          	bext	a4,a1,a2
    8000026c:	00100393          	li	t2,1
    80000270:	58771663          	bne	a4,t2,800007fc <fail>

0000000080000274 <test_10>:
    80000274:	00a00193          	li	gp,10
    80000278:	fff00593          	li	a1,-1
    8000027c:	00e00613          	li	a2,14
    80000280:	48c5d733          	bext	a4,a1,a2
    80000284:	00100393          	li	t2,1
    80000288:	56771a63          	bne	a4,t2,800007fc <fail>

000000008000028c <test_11>:
    8000028c:	00b00193          	li	gp,11
    80000290:	fff00593          	li	a1,-1
    80000294:	01b00613          	li	a2,27
    80000298:	48c5d733          	bext	a4,a1,a2
    8000029c:	00100393          	li	t2,1
    800002a0:	54771e63          	bne	a4,t2,800007fc <fail>

00000000800002a4 <test_12>:
    800002a4:	00c00193          	li	gp,12
    800002a8:	212125b7          	lui	a1,0x21212
    800002ac:	1215859b          	addiw	a1,a1,289 # 21212121 <_start-0x5edededf>
    800002b0:	00000613          	li	a2,0
    800002b4:	48c5d733          	bext	a4,a1,a2
    800002b8:	00100393          	li	t2,1
    800002bc:	54771063          	bne	a4,t2,800007fc <fail>

00000000800002c0 <test_13>:
    800002c0:	00d00193          	li	gp,13
    800002c4:	212125b7          	lui	a1,0x21212
    800002c8:	1215859b          	addiw	a1,a1,289 # 21212121 <_start-0x5edededf>
    800002cc:	00100613          	li	a2,1
    800002d0:	48c5d733          	bext	a4,a1,a2
    800002d4:	00000393          	li	t2,0
    800002d8:	52771263          	bne	a4,t2,800007fc <fail>

00000000800002dc <test_14>:
    800002dc:	00e00193          	li	gp,14
    800002e0:	212125b7          	lui	a1,0x21212
    800002e4:	1215859b          	addiw	a1,a1,289 # 21212121 <_start-0x5edededf>
    800002e8:	00700613          	li	a2,7
    800002ec:	48c5d733          	bext	a4,a1,a2
    800002f0:	00000393          	li	t2,0
    800002f4:	50771463          	bne	a4,t2,800007fc <fail>

00000000800002f8 <test_15>:
    800002f8:	00f00193          	li	gp,15
    800002fc:	212125b7          	lui	a1,0x21212
    80000300:	1215859b          	addiw	a1,a1,289 # 21212121 <_start-0x5edededf>
    80000304:	00d00613          	li	a2,13
    80000308:	48c5d733          	bext	a4,a1,a2
    8000030c:	00100393          	li	t2,1
    80000310:	4e771663          	bne	a4,t2,800007fc <fail>

0000000080000314 <test_16>:
    80000314:	01000193          	li	gp,16
    80000318:	000115b7          	lui	a1,0x11
    8000031c:	9095859b          	addiw	a1,a1,-1783 # 10909 <_start-0x7ffef6f7>
    80000320:	00f59593          	slli	a1,a1,0xf
    80000324:	48458593          	addi	a1,a1,1156
    80000328:	01f00613          	li	a2,31
    8000032c:	48c5d733          	bext	a4,a1,a2
    80000330:	00100393          	li	t2,1
    80000334:	4c771463          	bne	a4,t2,800007fc <fail>

0000000080000338 <test_17>:
    80000338:	01100193          	li	gp,17
    8000033c:	212125b7          	lui	a1,0x21212
    80000340:	1215859b          	addiw	a1,a1,289 # 21212121 <_start-0x5edededf>
    80000344:	fc000613          	li	a2,-64
    80000348:	48c5d733          	bext	a4,a1,a2
    8000034c:	00100393          	li	t2,1
    80000350:	4a771663          	bne	a4,t2,800007fc <fail>

0000000080000354 <test_18>:
    80000354:	01200193          	li	gp,18
    80000358:	212125b7          	lui	a1,0x21212
    8000035c:	1215859b          	addiw	a1,a1,289 # 21212121 <_start-0x5edededf>
    80000360:	fc100613          	li	a2,-63
    80000364:	48c5d733          	bext	a4,a1,a2
    80000368:	00000393          	li	t2,0
    8000036c:	48771863          	bne	a4,t2,800007fc <fail>

0000000080000370 <test_19>:
    80000370:	01300193          	li	gp,19
    80000374:	212125b7          	lui	a1,0x21212
    80000378:	1215859b          	addiw	a1,a1,289 # 21212121 <_start-0x5edededf>
    8000037c:	fc700613          	li	a2,-57
    80000380:	48c5d733          	bext	a4,a1,a2
    80000384:	00000393          	li	t2,0
    80000388:	46771a63          	bne	a4,t2,800007fc <fail>

000000008000038c <test_20>:
    8000038c:	01400193          	li	gp,20
    80000390:	000115b7          	lui	a1,0x11
    80000394:	9095859b          	addiw	a1,a1,-1783 # 10909 <_start-0x7ffef6f7>
    80000398:	00f59593          	slli	a1,a1,0xf
    8000039c:	48458593          	addi	a1,a1,1156
    800003a0:	fce00613          	li	a2,-50
    800003a4:	48c5d733          	bext	a4,a1,a2
    800003a8:	00000393          	li	t2,0
    800003ac:	44771863          	bne	a4,t2,800007fc <fail>

00000000800003b0 <test_21>:
    800003b0:	01500193          	li	gp,21
    800003b4:	ff8915b7          	lui	a1,0xff891
    800003b8:	9095859b          	addiw	a1,a1,-1783 # ffffffffff890909 <_end+0xffffffff7f88e909>
    800003bc:	00e59593          	slli	a1,a1,0xe
    800003c0:	21158593          	addi	a1,a1,529
    800003c4:	00c59593          	slli	a1,a1,0xc
    800003c8:	90958593          	addi	a1,a1,-1783
    800003cc:	00d59593          	slli	a1,a1,0xd
    800003d0:	12158593          	addi	a1,a1,289
    800003d4:	fff00613          	li	a2,-1
    800003d8:	48c5d733          	bext	a4,a1,a2
    800003dc:	00100393          	li	t2,1
    800003e0:	40771e63          	bne	a4,t2,800007fc <fail>

00000000800003e4 <test_50>:
    800003e4:	03200193          	li	gp,50
    800003e8:	00100593          	li	a1,1
    800003ec:	03f00613          	li	a2,63
    800003f0:	48c5d733          	bext	a4,a1,a2
    800003f4:	00000393          	li	t2,0
    800003f8:	40771263          	bne	a4,t2,800007fc <fail>

00000000800003fc <test_51>:
    800003fc:	03300193          	li	gp,51
    80000400:	fff00593          	li	a1,-1
    80000404:	02700613          	li	a2,39
    80000408:	48c5d733          	bext	a4,a1,a2
    8000040c:	00100393          	li	t2,1
    80000410:	3e771663          	bne	a4,t2,800007fc <fail>

0000000080000414 <test_52>:
    80000414:	03400193          	li	gp,52
    80000418:	fff0059b          	addiw	a1,zero,-1
    8000041c:	02059593          	slli	a1,a1,0x20
    80000420:	02b00613          	li	a2,43
    80000424:	48c5d733          	bext	a4,a1,a2
    80000428:	00100393          	li	t2,1
    8000042c:	3c771863          	bne	a4,t2,800007fc <fail>

0000000080000430 <test_22>:
    80000430:	01600193          	li	gp,22
    80000434:	00100593          	li	a1,1
    80000438:	00700613          	li	a2,7
    8000043c:	48c5d5b3          	bext	a1,a1,a2
    80000440:	00000393          	li	t2,0
    80000444:	3a759c63          	bne	a1,t2,800007fc <fail>

0000000080000448 <test_23>:
    80000448:	01700193          	li	gp,23
    8000044c:	000055b7          	lui	a1,0x5
    80000450:	5515859b          	addiw	a1,a1,1361 # 5551 <_start-0x7fffaaaf>
    80000454:	00e00613          	li	a2,14
    80000458:	48c5d633          	bext	a2,a1,a2
    8000045c:	00100393          	li	t2,1
    80000460:	38761e63          	bne	a2,t2,800007fc <fail>

0000000080000464 <test_24>:
    80000464:	01800193          	li	gp,24
    80000468:	00300593          	li	a1,3
    8000046c:	48b5d5b3          	bext	a1,a1,a1
    80000470:	00000393          	li	t2,0
    80000474:	38759463          	bne	a1,t2,800007fc <fail>

0000000080000478 <test_25>:
    80000478:	01900193          	li	gp,25
    8000047c:	00000213          	li	tp,0
    80000480:	000100b7          	lui	ra,0x10
    80000484:	f010809b          	addiw	ra,ra,-255 # ff01 <_start-0x7fff00ff>
    80000488:	01009093          	slli	ra,ra,0x10
    8000048c:	f0008093          	addi	ra,ra,-256
    80000490:	00000113          	li	sp,0
    80000494:	4820d733          	bext	a4,ra,sp
    80000498:	00070313          	mv	t1,a4
    8000049c:	00120213          	addi	tp,tp,1 # 1 <_start-0x7fffffff>
    800004a0:	00200293          	li	t0,2
    800004a4:	fc521ee3          	bne	tp,t0,80000480 <test_25+0x8>
    800004a8:	00000393          	li	t2,0
    800004ac:	34731863          	bne	t1,t2,800007fc <fail>

00000000800004b0 <test_26>:
    800004b0:	01a00193          	li	gp,26
    800004b4:	00000213          	li	tp,0
    800004b8:	00ff00b7          	lui	ra,0xff0
    800004bc:	0ff0809b          	addiw	ra,ra,255 # ff00ff <_start-0x7f00ff01>
    800004c0:	00100113          	li	sp,1
    800004c4:	4820d733          	bext	a4,ra,sp
    800004c8:	00000013          	nop
    800004cc:	00070313          	mv	t1,a4
    800004d0:	00120213          	addi	tp,tp,1 # 1 <_start-0x7fffffff>
    800004d4:	00200293          	li	t0,2
    800004d8:	fe5210e3          	bne	tp,t0,800004b8 <test_26+0x8>
    800004dc:	00100393          	li	t2,1
    800004e0:	30731e63          	bne	t1,t2,800007fc <fail>

00000000800004e4 <test_27>:
    800004e4:	01b00193          	li	gp,27
    800004e8:	00000213          	li	tp,0
    800004ec:	000100b7          	lui	ra,0x10
    800004f0:	f010809b          	addiw	ra,ra,-255 # ff01 <_start-0x7fff00ff>
    800004f4:	01009093          	slli	ra,ra,0x10
    800004f8:	f0008093          	addi	ra,ra,-256
    800004fc:	00800113          	li	sp,8
    80000500:	4820d733          	bext	a4,ra,sp
    80000504:	00000013          	nop
    80000508:	00000013          	nop
    8000050c:	00070313          	mv	t1,a4
    80000510:	00120213          	addi	tp,tp,1 # 1 <_start-0x7fffffff>
    80000514:	00200293          	li	t0,2
    80000518:	fc521ae3          	bne	tp,t0,800004ec <test_27+0x8>
    8000051c:	00100393          	li	t2,1
    80000520:	2c731e63          	bne	t1,t2,800007fc <fail>

0000000080000524 <test_28>:
    80000524:	01c00193          	li	gp,28
    80000528:	00000213          	li	tp,0
    8000052c:	000100b7          	lui	ra,0x10
    80000530:	f010809b          	addiw	ra,ra,-255 # ff01 <_start-0x7fff00ff>
    80000534:	01009093          	slli	ra,ra,0x10
    80000538:	f0008093          	addi	ra,ra,-256
    8000053c:	00000113          	li	sp,0
    80000540:	4820d733          	bext	a4,ra,sp
    80000544:	00120213          	addi	tp,tp,1 # 1 <_start-0x7fffffff>
    80000548:	00200293          	li	t0,2
    8000054c:	fe5210e3          	bne	tp,t0,8000052c <test_28+0x8>
    80000550:	00000393          	li	t2,0
    80000554:	2a771463          	bne	a4,t2,800007fc <fail>

0000000080000558 <test_29>:
    80000558:	01d00193          	li	gp,29
    8000055c:	00000213          	li	tp,0
    80000560:	00ff00b7          	lui	ra,0xff0
    80000564:	0ff0809b          	addiw	ra,ra,255 # ff00ff <_start-0x7f00ff01>
    80000568:	00100113          	li	sp,1
    8000056c:	00000013          	nop
    80000570:	4820d733          	bext	a4,ra,sp
    80000574:	00120213          	addi	tp,tp,1 # 1 <_start-0x7fffffff>
    80000578:	00200293          	li	t0,2
    8000057c:	fe5212e3          	bne	tp,t0,80000560 <test_29+0x8>
    80000580:	00100393          	li	t2,1
    80000584:	26771c63          	bne	a4,t2,800007fc <fail>

0000000080000588 <test_30>:
    80000588:	01e00193          	li	gp,30
    8000058c:	00000213          	li	tp,0
    80000590:	000100b7          	lui	ra,0x10
    80000594:	f010809b          	addiw	ra,ra,-255 # ff01 <_start-0x7fff00ff>
    80000598:	01009093          	slli	ra,ra,0x10
    8000059c:	f0008093          	addi	ra,ra,-256
    800005a0:	00800113          	li	sp,8
    800005a4:	00000013          	nop
    800005a8:	00000013          	nop
    800005ac:	4820d733          	bext	a4,ra,sp
    800005b0:	00120213          	addi	tp,tp,1 # 1 <_start-0x7fffffff>
    800005b4:	00200293          	li	t0,2
    800005b8:	fc521ce3          	bne	tp,t0,80000590 <test_30+0x8>
    800005bc:	00100393          	li	t2,1
    800005c0:	22771e63          	bne	a4,t2,800007fc <fail>

00000000800005c4 <test_31>:
    800005c4:	01f00193          	li	gp,31
    800005c8:	00000213          	li	tp,0
    800005cc:	000100b7          	lui	ra,0x10
    800005d0:	f010809b          	addiw	ra,ra,-255 # ff01 <_start-0x7fff00ff>
    800005d4:	01009093          	slli	ra,ra,0x10
    800005d8:	f0008093          	addi	ra,ra,-256
    800005dc:	00000013          	nop
    800005e0:	00000113          	li	sp,0
    800005e4:	4820d733          	bext	a4,ra,sp
    800005e8:	00120213          	addi	tp,tp,1 # 1 <_start-0x7fffffff>
    800005ec:	00200293          	li	t0,2
    800005f0:	fc521ee3          	bne	tp,t0,800005cc <test_31+0x8>
    800005f4:	00000393          	li	t2,0
    800005f8:	20771263          	bne	a4,t2,800007fc <fail>

00000000800005fc <test_32>:
    800005fc:	02000193          	li	gp,32
    80000600:	00000213          	li	tp,0
    80000604:	00ff00b7          	lui	ra,0xff0
    80000608:	0ff0809b          	addiw	ra,ra,255 # ff00ff <_start-0x7f00ff01>
    8000060c:	00000013          	nop
    80000610:	00100113          	li	sp,1
    80000614:	00000013          	nop
    80000618:	4820d733          	bext	a4,ra,sp
    8000061c:	00120213          	addi	tp,tp,1 # 1 <_start-0x7fffffff>
    80000620:	00200293          	li	t0,2
    80000624:	fe5210e3          	bne	tp,t0,80000604 <test_32+0x8>
    80000628:	00100393          	li	t2,1
    8000062c:	1c771863          	bne	a4,t2,800007fc <fail>

0000000080000630 <test_33>:
    80000630:	02100193          	li	gp,33
    80000634:	00000213          	li	tp,0
    80000638:	000100b7          	lui	ra,0x10
    8000063c:	f010809b          	addiw	ra,ra,-255 # ff01 <_start-0x7fff00ff>
    80000640:	01009093          	slli	ra,ra,0x10
    80000644:	f0008093          	addi	ra,ra,-256
    80000648:	00000013          	nop
    8000064c:	00000013          	nop
    80000650:	00800113          	li	sp,8
    80000654:	4820d733          	bext	a4,ra,sp
    80000658:	00120213          	addi	tp,tp,1 # 1 <_start-0x7fffffff>
    8000065c:	00200293          	li	t0,2
    80000660:	fc521ce3          	bne	tp,t0,80000638 <test_33+0x8>
    80000664:	00100393          	li	t2,1
    80000668:	18771a63          	bne	a4,t2,800007fc <fail>

000000008000066c <test_34>:
    8000066c:	02200193          	li	gp,34
    80000670:	00000213          	li	tp,0
    80000674:	00800113          	li	sp,8
    80000678:	000100b7          	lui	ra,0x10
    8000067c:	f010809b          	addiw	ra,ra,-255 # ff01 <_start-0x7fff00ff>
    80000680:	01009093          	slli	ra,ra,0x10
    80000684:	f0008093          	addi	ra,ra,-256
    80000688:	4820d733          	bext	a4,ra,sp
    8000068c:	00120213          	addi	tp,tp,1 # 1 <_start-0x7fffffff>
    80000690:	00200293          	li	t0,2
    80000694:	fe5210e3          	bne	tp,t0,80000674 <test_34+0x8>
    80000698:	00100393          	li	t2,1
    8000069c:	16771063          	bne	a4,t2,800007fc <fail>

00000000800006a0 <test_35>:
    800006a0:	02300193          	li	gp,35
    800006a4:	00000213          	li	tp,0
    800006a8:	00e00113          	li	sp,14
    800006ac:	0ff010b7          	lui	ra,0xff01
    800006b0:	ff00809b          	addiw	ra,ra,-16 # ff00ff0 <_start-0x700ff010>
    800006b4:	00000013          	nop
    800006b8:	4820d733          	bext	a4,ra,sp
    800006bc:	00120213          	addi	tp,tp,1 # 1 <_start-0x7fffffff>
    800006c0:	00200293          	li	t0,2
    800006c4:	fe5212e3          	bne	tp,t0,800006a8 <test_35+0x8>
    800006c8:	00000393          	li	t2,0
    800006cc:	12771863          	bne	a4,t2,800007fc <fail>

00000000800006d0 <test_36>:
    800006d0:	02400193          	li	gp,36
    800006d4:	00000213          	li	tp,0
    800006d8:	01b00113          	li	sp,27
    800006dc:	0ff010b7          	lui	ra,0xff01
    800006e0:	ff00809b          	addiw	ra,ra,-16 # ff00ff0 <_start-0x700ff010>
    800006e4:	00000013          	nop
    800006e8:	00000013          	nop
    800006ec:	4820d733          	bext	a4,ra,sp
    800006f0:	00120213          	addi	tp,tp,1 # 1 <_start-0x7fffffff>
    800006f4:	00200293          	li	t0,2
    800006f8:	fe5210e3          	bne	tp,t0,800006d8 <test_36+0x8>
    800006fc:	00100393          	li	t2,1
    80000700:	0e771e63          	bne	a4,t2,800007fc <fail>

0000000080000704 <test_37>:
    80000704:	02500193          	li	gp,37
    80000708:	00000213          	li	tp,0
    8000070c:	00800113          	li	sp,8
    80000710:	00000013          	nop
    80000714:	000100b7          	lui	ra,0x10
    80000718:	f010809b          	addiw	ra,ra,-255 # ff01 <_start-0x7fff00ff>
    8000071c:	01009093          	slli	ra,ra,0x10
    80000720:	f0008093          	addi	ra,ra,-256
    80000724:	4820d733          	bext	a4,ra,sp
    80000728:	00120213          	addi	tp,tp,1 # 1 <_start-0x7fffffff>
    8000072c:	00200293          	li	t0,2
    80000730:	fc521ee3          	bne	tp,t0,8000070c <test_37+0x8>
    80000734:	00100393          	li	t2,1
    80000738:	0c771263          	bne	a4,t2,800007fc <fail>

000000008000073c <test_38>:
    8000073c:	02600193          	li	gp,38
    80000740:	00000213          	li	tp,0
    80000744:	00e00113          	li	sp,14
    80000748:	00000013          	nop
    8000074c:	0ff010b7          	lui	ra,0xff01
    80000750:	ff00809b          	addiw	ra,ra,-16 # ff00ff0 <_start-0x700ff010>
    80000754:	00000013          	nop
    80000758:	4820d733          	bext	a4,ra,sp
    8000075c:	00120213          	addi	tp,tp,1 # 1 <_start-0x7fffffff>
    80000760:	00200293          	li	t0,2
    80000764:	fe5210e3          	bne	tp,t0,80000744 <test_38+0x8>
    80000768:	00000393          	li	t2,0
    8000076c:	08771863          	bne	a4,t2,800007fc <fail>

0000000080000770 <test_39>:
    80000770:	02700193          	li	gp,39
    80000774:	00000213          	li	tp,0
    80000778:	01b00113          	li	sp,27
    8000077c:	00000013          	nop
    80000780:	00000013          	nop
    80000784:	0ff010b7          	lui	ra,0xff01
    80000788:	ff00809b          	addiw	ra,ra,-16 # ff00ff0 <_start-0x700ff010>
    8000078c:	4820d733          	bext	a4,ra,sp
    80000790:	00120213          	addi	tp,tp,1 # 1 <_start-0x7fffffff>
    80000794:	00200293          	li	t0,2
    80000798:	fe5210e3          	bne	tp,t0,80000778 <test_39+0x8>
    8000079c:	00100393          	li	t2,1
    800007a0:	04771e63          	bne	a4,t2,800007fc <fail>

00000000800007a4 <test_40>:
    800007a4:	02800193          	li	gp,40
    800007a8:	00f00093          	li	ra,15
    800007ac:	48105133          	bext	sp,zero,ra
    800007b0:	00000393          	li	t2,0
    800007b4:	04711463          	bne	sp,t2,800007fc <fail>

00000000800007b8 <test_41>:
    800007b8:	02900193          	li	gp,41
    800007bc:	02000093          	li	ra,32
    800007c0:	4800d133          	bext	sp,ra,zero
    800007c4:	00000393          	li	t2,0
    800007c8:	02711a63          	bne	sp,t2,800007fc <fail>

00000000800007cc <test_42>:
    800007cc:	02a00193          	li	gp,42
    800007d0:	480050b3          	bext	ra,zero,zero
    800007d4:	00000393          	li	t2,0
    800007d8:	02709263          	bne	ra,t2,800007fc <fail>

00000000800007dc <test_43>:
    800007dc:	02b00193          	li	gp,43
    800007e0:	40000093          	li	ra,1024
    800007e4:	00001137          	lui	sp,0x1
    800007e8:	8001011b          	addiw	sp,sp,-2048 # 800 <_start-0x7ffff800>
    800007ec:	4820d033          	bext	zero,ra,sp
    800007f0:	00000393          	li	t2,0
    800007f4:	00701463          	bne	zero,t2,800007fc <fail>
    800007f8:	02301063          	bne	zero,gp,80000818 <pass>

00000000800007fc <fail>:
    800007fc:	0ff0000f          	fence
    80000800:	00018063          	beqz	gp,80000800 <fail+0x4>
    80000804:	00119193          	slli	gp,gp,0x1
    80000808:	0011e193          	ori	gp,gp,1
    8000080c:	05d00893          	li	a7,93
    80000810:	00018513          	mv	a0,gp
    80000814:	00000073          	ecall

0000000080000818 <pass>:
    80000818:	0ff0000f          	fence
    8000081c:	00100193          	li	gp,1
    80000820:	05d00893          	li	a7,93
    80000824:	00000513          	li	a0,0
    80000828:	00000073          	ecall
    8000082c:	c0001073          	unimp
    80000830:	0000                	.insn	2, 0x
    80000832:	0000                	.insn	2, 0x
    80000834:	0000                	.insn	2, 0x
    80000836:	0000                	.insn	2, 0x
    80000838:	0000                	.insn	2, 0x
    8000083a:	0000                	.insn	2, 0x
