
rv64uzbs-p-bclri:     file format elf64-littleriscv


Disassembly of section .text.init:

0000000080000000 <_start>:
    80000000:	0500006f          	j	80000050 <reset_vector>

0000000080000004 <trap_vector>:
    80000004:	34202f73          	csrr	t5,mcause
    80000008:	00800f93          	li	t6,8
    8000000c:	03ff0863          	beq	t5,t6,8000003c <write_tohost>
    80000010:	00900f93          	li	t6,9
    80000014:	03ff0463          	beq	t5,t6,8000003c <write_tohost>
    80000018:	00b00f93          	li	t6,11
    8000001c:	03ff0063          	beq	t5,t6,8000003c <write_tohost>
    80000020:	00000f13          	li	t5,0
    80000024:	000f0463          	beqz	t5,8000002c <trap_vector+0x28>
    80000028:	000f0067          	jr	t5
    8000002c:	34202f73          	csrr	t5,mcause
    80000030:	000f5463          	bgez	t5,80000038 <handle_exception>
    80000034:	0040006f          	j	80000038 <handle_exception>

0000000080000038 <handle_exception>:
    80000038:	5391e193          	ori	gp,gp,1337

000000008000003c <write_tohost>:
    8000003c:	00001f17          	auipc	t5,0x1
    80000040:	fc3f2223          	sw	gp,-60(t5) # 80001000 <tohost>
    80000044:	00001f17          	auipc	t5,0x1
    80000048:	fc0f2023          	sw	zero,-64(t5) # 80001004 <tohost+0x4>
    8000004c:	ff1ff06f          	j	8000003c <write_tohost>

0000000080000050 <reset_vector>:
    80000050:	00000093          	li	ra,0
    80000054:	00000113          	li	sp,0
    80000058:	00000193          	li	gp,0
    8000005c:	00000213          	li	tp,0
    80000060:	00000293          	li	t0,0
    80000064:	00000313          	li	t1,0
    80000068:	00000393          	li	t2,0
    8000006c:	00000413          	li	s0,0
    80000070:	00000493          	li	s1,0
    80000074:	00000513          	li	a0,0
    80000078:	00000593          	li	a1,0
    8000007c:	00000613          	li	a2,0
    80000080:	00000693          	li	a3,0
    80000084:	00000713          	li	a4,0
    80000088:	00000793          	li	a5,0
    8000008c:	00000813          	li	a6,0
    80000090:	00000893          	li	a7,0
    80000094:	00000913          	li	s2,0
    80000098:	00000993          	li	s3,0
    8000009c:	00000a13          	li	s4,0
    800000a0:	00000a93          	li	s5,0
    800000a4:	00000b13          	li	s6,0
    800000a8:	00000b93          	li	s7,0
    800000ac:	00000c13          	li	s8,0
    800000b0:	00000c93          	li	s9,0
    800000b4:	00000d13          	li	s10,0
    800000b8:	00000d93          	li	s11,0
    800000bc:	00000e13          	li	t3,0
    800000c0:	00000e93          	li	t4,0
    800000c4:	00000f13          	li	t5,0
    800000c8:	00000f93          	li	t6,0
    800000cc:	f1402573          	csrr	a0,mhartid
    800000d0:	00051063          	bnez	a0,800000d0 <reset_vector+0x80>
    800000d4:	00000297          	auipc	t0,0x0
    800000d8:	01028293          	addi	t0,t0,16 # 800000e4 <reset_vector+0x94>
    800000dc:	30529073          	csrw	mtvec,t0
    800000e0:	74445073          	csrwi	0x744,8
    800000e4:	00000297          	auipc	t0,0x0
    800000e8:	01028293          	addi	t0,t0,16 # 800000f4 <reset_vector+0xa4>
    800000ec:	30529073          	csrw	mtvec,t0
    800000f0:	18005073          	csrwi	satp,0
    800000f4:	00000297          	auipc	t0,0x0
    800000f8:	02428293          	addi	t0,t0,36 # 80000118 <reset_vector+0xc8>
    800000fc:	30529073          	csrw	mtvec,t0
    80000100:	0010029b          	addiw	t0,zero,1
    80000104:	03529293          	slli	t0,t0,0x35
    80000108:	fff28293          	addi	t0,t0,-1
    8000010c:	3b029073          	csrw	pmpaddr0,t0
    80000110:	01f00293          	li	t0,31
    80000114:	3a029073          	csrw	pmpcfg0,t0
    80000118:	30405073          	csrwi	mie,0
    8000011c:	00000297          	auipc	t0,0x0
    80000120:	01428293          	addi	t0,t0,20 # 80000130 <reset_vector+0xe0>
    80000124:	30529073          	csrw	mtvec,t0
    80000128:	30205073          	csrwi	medeleg,0
    8000012c:	30305073          	csrwi	mideleg,0
    80000130:	00000193          	li	gp,0
    80000134:	00000297          	auipc	t0,0x0
    80000138:	ed028293          	addi	t0,t0,-304 # 80000004 <trap_vector>
    8000013c:	30529073          	csrw	mtvec,t0
    80000140:	00100513          	li	a0,1
    80000144:	01f51513          	slli	a0,a0,0x1f
    80000148:	00055c63          	bgez	a0,80000160 <reset_vector+0x110>
    8000014c:	0ff0000f          	fence
    80000150:	00100193          	li	gp,1
    80000154:	05d00893          	li	a7,93
    80000158:	00000513          	li	a0,0
    8000015c:	00000073          	ecall
    80000160:	00000293          	li	t0,0
    80000164:	00028a63          	beqz	t0,80000178 <reset_vector+0x128>
    80000168:	10529073          	csrw	stvec,t0
    8000016c:	0000b2b7          	lui	t0,0xb
    80000170:	1092829b          	addiw	t0,t0,265 # b109 <_start-0x7fff4ef7>
    80000174:	30229073          	csrw	medeleg,t0
    80000178:	30005073          	csrwi	mstatus,0
    8000017c:	00000297          	auipc	t0,0x0
    80000180:	01428293          	addi	t0,t0,20 # 80000190 <test_2>
    80000184:	34129073          	csrw	mepc,t0
    80000188:	f1402573          	csrr	a0,mhartid
    8000018c:	30200073          	mret

0000000080000190 <test_2>:
    80000190:	00200193          	li	gp,2
    80000194:	000106b7          	lui	a3,0x10
    80000198:	f016869b          	addiw	a3,a3,-255 # ff01 <_start-0x7fff00ff>
    8000019c:	01069693          	slli	a3,a3,0x10
    800001a0:	f0068693          	addi	a3,a3,-256
    800001a4:	48069713          	bclri	a4,a3,0x0
    800001a8:	000103b7          	lui	t2,0x10
    800001ac:	f013839b          	addiw	t2,t2,-255 # ff01 <_start-0x7fff00ff>
    800001b0:	01039393          	slli	t2,t2,0x10
    800001b4:	f0038393          	addi	t2,t2,-256
    800001b8:	34771e63          	bne	a4,t2,80000514 <fail>

00000000800001bc <test_3>:
    800001bc:	00300193          	li	gp,3
    800001c0:	00ff06b7          	lui	a3,0xff0
    800001c4:	0ff6869b          	addiw	a3,a3,255 # ff00ff <_start-0x7f00ff01>
    800001c8:	48169713          	bclri	a4,a3,0x1
    800001cc:	00ff03b7          	lui	t2,0xff0
    800001d0:	0fd3839b          	addiw	t2,t2,253 # ff00fd <_start-0x7f00ff03>
    800001d4:	34771063          	bne	a4,t2,80000514 <fail>

00000000800001d8 <test_4>:
    800001d8:	00400193          	li	gp,4
    800001dc:	000106b7          	lui	a3,0x10
    800001e0:	f016869b          	addiw	a3,a3,-255 # ff01 <_start-0x7fff00ff>
    800001e4:	01069693          	slli	a3,a3,0x10
    800001e8:	f0068693          	addi	a3,a3,-256
    800001ec:	48869713          	bclri	a4,a3,0x8
    800001f0:	000103b7          	lui	t2,0x10
    800001f4:	f013839b          	addiw	t2,t2,-255 # ff01 <_start-0x7fff00ff>
    800001f8:	01039393          	slli	t2,t2,0x10
    800001fc:	e0038393          	addi	t2,t2,-512
    80000200:	30771a63          	bne	a4,t2,80000514 <fail>

0000000080000204 <test_5>:
    80000204:	00500193          	li	gp,5
    80000208:	0ff016b7          	lui	a3,0xff01
    8000020c:	ff06869b          	addiw	a3,a3,-16 # ff00ff0 <_start-0x700ff010>
    80000210:	48e69713          	bclri	a4,a3,0xe
    80000214:	0ff013b7          	lui	t2,0xff01
    80000218:	ff03839b          	addiw	t2,t2,-16 # ff00ff0 <_start-0x700ff010>
    8000021c:	2e771c63          	bne	a4,t2,80000514 <fail>

0000000080000220 <test_6>:
    80000220:	00600193          	li	gp,6
    80000224:	0ff016b7          	lui	a3,0xff01
    80000228:	ff06869b          	addiw	a3,a3,-16 # ff00ff0 <_start-0x700ff010>
    8000022c:	49b69713          	bclri	a4,a3,0x1b
    80000230:	07f013b7          	lui	t2,0x7f01
    80000234:	ff03839b          	addiw	t2,t2,-16 # 7f00ff0 <_start-0x780ff010>
    80000238:	2c771e63          	bne	a4,t2,80000514 <fail>

000000008000023c <test_7>:
    8000023c:	00700193          	li	gp,7
    80000240:	fff00693          	li	a3,-1
    80000244:	48069713          	bclri	a4,a3,0x0
    80000248:	ffe00393          	li	t2,-2
    8000024c:	2c771463          	bne	a4,t2,80000514 <fail>

0000000080000250 <test_8>:
    80000250:	00800193          	li	gp,8
    80000254:	fff00693          	li	a3,-1
    80000258:	48169713          	bclri	a4,a3,0x1
    8000025c:	ffd00393          	li	t2,-3
    80000260:	2a771a63          	bne	a4,t2,80000514 <fail>

0000000080000264 <test_9>:
    80000264:	00900193          	li	gp,9
    80000268:	fff00693          	li	a3,-1
    8000026c:	48769713          	bclri	a4,a3,0x7
    80000270:	f7f00393          	li	t2,-129
    80000274:	2a771063          	bne	a4,t2,80000514 <fail>

0000000080000278 <test_10>:
    80000278:	00a00193          	li	gp,10
    8000027c:	fff00693          	li	a3,-1
    80000280:	48e69713          	bclri	a4,a3,0xe
    80000284:	ffffc3b7          	lui	t2,0xffffc
    80000288:	fff3839b          	addiw	t2,t2,-1 # ffffffffffffbfff <_end+0xffffffff7fff9fff>
    8000028c:	28771463          	bne	a4,t2,80000514 <fail>

0000000080000290 <test_11>:
    80000290:	00b00193          	li	gp,11
    80000294:	fff00693          	li	a3,-1
    80000298:	49b69713          	bclri	a4,a3,0x1b
    8000029c:	f80003b7          	lui	t2,0xf8000
    800002a0:	fff3839b          	addiw	t2,t2,-1 # fffffffff7ffffff <_end+0xffffffff77ffdfff>
    800002a4:	26771863          	bne	a4,t2,80000514 <fail>

00000000800002a8 <test_12>:
    800002a8:	00c00193          	li	gp,12
    800002ac:	212126b7          	lui	a3,0x21212
    800002b0:	1216869b          	addiw	a3,a3,289 # 21212121 <_start-0x5edededf>
    800002b4:	48069713          	bclri	a4,a3,0x0
    800002b8:	212123b7          	lui	t2,0x21212
    800002bc:	1203839b          	addiw	t2,t2,288 # 21212120 <_start-0x5ededee0>
    800002c0:	24771a63          	bne	a4,t2,80000514 <fail>

00000000800002c4 <test_13>:
    800002c4:	00d00193          	li	gp,13
    800002c8:	212126b7          	lui	a3,0x21212
    800002cc:	1216869b          	addiw	a3,a3,289 # 21212121 <_start-0x5edededf>
    800002d0:	48169713          	bclri	a4,a3,0x1
    800002d4:	212123b7          	lui	t2,0x21212
    800002d8:	1213839b          	addiw	t2,t2,289 # 21212121 <_start-0x5edededf>
    800002dc:	22771c63          	bne	a4,t2,80000514 <fail>

00000000800002e0 <test_14>:
    800002e0:	00e00193          	li	gp,14
    800002e4:	212126b7          	lui	a3,0x21212
    800002e8:	1216869b          	addiw	a3,a3,289 # 21212121 <_start-0x5edededf>
    800002ec:	48769713          	bclri	a4,a3,0x7
    800002f0:	212123b7          	lui	t2,0x21212
    800002f4:	1213839b          	addiw	t2,t2,289 # 21212121 <_start-0x5edededf>
    800002f8:	20771e63          	bne	a4,t2,80000514 <fail>

00000000800002fc <test_15>:
    800002fc:	00f00193          	li	gp,15
    80000300:	212126b7          	lui	a3,0x21212
    80000304:	1216869b          	addiw	a3,a3,289 # 21212121 <_start-0x5edededf>
    80000308:	48d69713          	bclri	a4,a3,0xd
    8000030c:	212103b7          	lui	t2,0x21210
    80000310:	1213839b          	addiw	t2,t2,289 # 21210121 <_start-0x5edefedf>
    80000314:	20771063          	bne	a4,t2,80000514 <fail>

0000000080000318 <test_16>:
    80000318:	01000193          	li	gp,16
    8000031c:	000116b7          	lui	a3,0x11
    80000320:	9096869b          	addiw	a3,a3,-1783 # 10909 <_start-0x7ffef6f7>
    80000324:	00f69693          	slli	a3,a3,0xf
    80000328:	48468693          	addi	a3,a3,1156
    8000032c:	49f69713          	bclri	a4,a3,0x1f
    80000330:	048483b7          	lui	t2,0x4848
    80000334:	4843839b          	addiw	t2,t2,1156 # 4848484 <_start-0x7b7b7b7c>
    80000338:	1c771e63          	bne	a4,t2,80000514 <fail>

000000008000033c <test_50>:
    8000033c:	03200193          	li	gp,50
    80000340:	00100693          	li	a3,1
    80000344:	4bf69713          	bclri	a4,a3,0x3f
    80000348:	00100393          	li	t2,1
    8000034c:	1c771463          	bne	a4,t2,80000514 <fail>

0000000080000350 <test_51>:
    80000350:	03300193          	li	gp,51
    80000354:	fff00693          	li	a3,-1
    80000358:	4a769713          	bclri	a4,a3,0x27
    8000035c:	fff0039b          	addiw	t2,zero,-1
    80000360:	02739393          	slli	t2,t2,0x27
    80000364:	fff38393          	addi	t2,t2,-1
    80000368:	1a771663          	bne	a4,t2,80000514 <fail>

000000008000036c <test_52>:
    8000036c:	03400193          	li	gp,52
    80000370:	fff0069b          	addiw	a3,zero,-1
    80000374:	02069693          	slli	a3,a3,0x20
    80000378:	4ab69713          	bclri	a4,a3,0x2b
    8000037c:	fffff3b7          	lui	t2,0xfffff
    80000380:	7ff3839b          	addiw	t2,t2,2047 # fffffffffffff7ff <_end+0xffffffff7fffd7ff>
    80000384:	02039393          	slli	t2,t2,0x20
    80000388:	18771663          	bne	a4,t2,80000514 <fail>

000000008000038c <test_17>:
    8000038c:	01100193          	li	gp,17
    80000390:	00100593          	li	a1,1
    80000394:	48759593          	bclri	a1,a1,0x7
    80000398:	00100393          	li	t2,1
    8000039c:	16759c63          	bne	a1,t2,80000514 <fail>

00000000800003a0 <test_18>:
    800003a0:	01200193          	li	gp,18
    800003a4:	00000213          	li	tp,0
    800003a8:	000100b7          	lui	ra,0x10
    800003ac:	f010809b          	addiw	ra,ra,-255 # ff01 <_start-0x7fff00ff>
    800003b0:	01009093          	slli	ra,ra,0x10
    800003b4:	f0008093          	addi	ra,ra,-256
    800003b8:	48809713          	bclri	a4,ra,0x8
    800003bc:	00070313          	mv	t1,a4
    800003c0:	00120213          	addi	tp,tp,1 # 1 <_start-0x7fffffff>
    800003c4:	00200293          	li	t0,2
    800003c8:	fe5210e3          	bne	tp,t0,800003a8 <test_18+0x8>
    800003cc:	000103b7          	lui	t2,0x10
    800003d0:	f013839b          	addiw	t2,t2,-255 # ff01 <_start-0x7fff00ff>
    800003d4:	01039393          	slli	t2,t2,0x10
    800003d8:	e0038393          	addi	t2,t2,-512
    800003dc:	12731c63          	bne	t1,t2,80000514 <fail>

00000000800003e0 <test_19>:
    800003e0:	01300193          	li	gp,19
    800003e4:	00000213          	li	tp,0
    800003e8:	0ff010b7          	lui	ra,0xff01
    800003ec:	ff00809b          	addiw	ra,ra,-16 # ff00ff0 <_start-0x700ff010>
    800003f0:	48e09713          	bclri	a4,ra,0xe
    800003f4:	00000013          	nop
    800003f8:	00070313          	mv	t1,a4
    800003fc:	00120213          	addi	tp,tp,1 # 1 <_start-0x7fffffff>
    80000400:	00200293          	li	t0,2
    80000404:	fe5212e3          	bne	tp,t0,800003e8 <test_19+0x8>
    80000408:	0ff013b7          	lui	t2,0xff01
    8000040c:	ff03839b          	addiw	t2,t2,-16 # ff00ff0 <_start-0x700ff010>
    80000410:	10731263          	bne	t1,t2,80000514 <fail>

0000000080000414 <test_20>:
    80000414:	01400193          	li	gp,20
    80000418:	00000213          	li	tp,0
    8000041c:	0ff010b7          	lui	ra,0xff01
    80000420:	ff00809b          	addiw	ra,ra,-16 # ff00ff0 <_start-0x700ff010>
    80000424:	49b09713          	bclri	a4,ra,0x1b
    80000428:	00000013          	nop
    8000042c:	00000013          	nop
    80000430:	00070313          	mv	t1,a4
    80000434:	00120213          	addi	tp,tp,1 # 1 <_start-0x7fffffff>
    80000438:	00200293          	li	t0,2
    8000043c:	fe5210e3          	bne	tp,t0,8000041c <test_20+0x8>
    80000440:	07f013b7          	lui	t2,0x7f01
    80000444:	ff03839b          	addiw	t2,t2,-16 # 7f00ff0 <_start-0x780ff010>
    80000448:	0c731663          	bne	t1,t2,80000514 <fail>

000000008000044c <test_21>:
    8000044c:	01500193          	li	gp,21
    80000450:	00000213          	li	tp,0
    80000454:	000100b7          	lui	ra,0x10
    80000458:	f010809b          	addiw	ra,ra,-255 # ff01 <_start-0x7fff00ff>
    8000045c:	01009093          	slli	ra,ra,0x10
    80000460:	f0008093          	addi	ra,ra,-256
    80000464:	48809713          	bclri	a4,ra,0x8
    80000468:	00120213          	addi	tp,tp,1 # 1 <_start-0x7fffffff>
    8000046c:	00200293          	li	t0,2
    80000470:	fe5212e3          	bne	tp,t0,80000454 <test_21+0x8>
    80000474:	000103b7          	lui	t2,0x10
    80000478:	f013839b          	addiw	t2,t2,-255 # ff01 <_start-0x7fff00ff>
    8000047c:	01039393          	slli	t2,t2,0x10
    80000480:	e0038393          	addi	t2,t2,-512
    80000484:	08771863          	bne	a4,t2,80000514 <fail>

0000000080000488 <test_22>:
    80000488:	01600193          	li	gp,22
    8000048c:	00000213          	li	tp,0
    80000490:	0ff010b7          	lui	ra,0xff01
    80000494:	ff00809b          	addiw	ra,ra,-16 # ff00ff0 <_start-0x700ff010>
    80000498:	00000013          	nop
    8000049c:	48e09713          	bclri	a4,ra,0xe
    800004a0:	00120213          	addi	tp,tp,1 # 1 <_start-0x7fffffff>
    800004a4:	00200293          	li	t0,2
    800004a8:	fe5214e3          	bne	tp,t0,80000490 <test_22+0x8>
    800004ac:	0ff013b7          	lui	t2,0xff01
    800004b0:	ff03839b          	addiw	t2,t2,-16 # ff00ff0 <_start-0x700ff010>
    800004b4:	06771063          	bne	a4,t2,80000514 <fail>

00000000800004b8 <test_23>:
    800004b8:	01700193          	li	gp,23
    800004bc:	00000213          	li	tp,0
    800004c0:	0ff010b7          	lui	ra,0xff01
    800004c4:	ff00809b          	addiw	ra,ra,-16 # ff00ff0 <_start-0x700ff010>
    800004c8:	00000013          	nop
    800004cc:	00000013          	nop
    800004d0:	49b09713          	bclri	a4,ra,0x1b
    800004d4:	00120213          	addi	tp,tp,1 # 1 <_start-0x7fffffff>
    800004d8:	00200293          	li	t0,2
    800004dc:	fe5212e3          	bne	tp,t0,800004c0 <test_23+0x8>
    800004e0:	07f013b7          	lui	t2,0x7f01
    800004e4:	ff03839b          	addiw	t2,t2,-16 # 7f00ff0 <_start-0x780ff010>
    800004e8:	02771663          	bne	a4,t2,80000514 <fail>

00000000800004ec <test_24>:
    800004ec:	01800193          	li	gp,24
    800004f0:	49f01093          	bclri	ra,zero,0x1f
    800004f4:	00000393          	li	t2,0
    800004f8:	00709e63          	bne	ra,t2,80000514 <fail>

00000000800004fc <test_25>:
    800004fc:	01900193          	li	gp,25
    80000500:	02100093          	li	ra,33
    80000504:	49409013          	bclri	zero,ra,0x14
    80000508:	00000393          	li	t2,0
    8000050c:	00701463          	bne	zero,t2,80000514 <fail>
    80000510:	02301063          	bne	zero,gp,80000530 <pass>

0000000080000514 <fail>:
    80000514:	0ff0000f          	fence
    80000518:	00018063          	beqz	gp,80000518 <fail+0x4>
    8000051c:	00119193          	slli	gp,gp,0x1
    80000520:	0011e193          	ori	gp,gp,1
    80000524:	05d00893          	li	a7,93
    80000528:	00018513          	mv	a0,gp
    8000052c:	00000073          	ecall

0000000080000530 <pass>:
    80000530:	0ff0000f          	fence
    80000534:	00100193          	li	gp,1
    80000538:	05d00893          	li	a7,93
    8000053c:	00000513          	li	a0,0
    80000540:	00000073          	ecall
    80000544:	c0001073          	unimp
    80000548:	0000                	.insn	2, 0x
    8000054a:	0000                	.insn	2, 0x
    8000054c:	0000                	.insn	2, 0x
    8000054e:	0000                	.insn	2, 0x
    80000550:	0000                	.insn	2, 0x
    80000552:	0000                	.insn	2, 0x
    80000554:	0000                	.insn	2, 0x
    80000556:	0000                	.insn	2, 0x
    80000558:	0000                	.insn	2, 0x
    8000055a:	0000                	.insn	2, 0x
    8000055c:	0000                	.insn	2, 0x
    8000055e:	0000                	.insn	2, 0x
    80000560:	0000                	.insn	2, 0x
    80000562:	0000                	.insn	2, 0x
    80000564:	0000                	.insn	2, 0x
    80000566:	0000                	.insn	2, 0x
    80000568:	0000                	.insn	2, 0x
    8000056a:	0000                	.insn	2, 0x
    8000056c:	0000                	.insn	2, 0x
    8000056e:	0000                	.insn	2, 0x
    80000570:	0000                	.insn	2, 0x
    80000572:	0000                	.insn	2, 0x
    80000574:	0000                	.insn	2, 0x
    80000576:	0000                	.insn	2, 0x
    80000578:	0000                	.insn	2, 0x
    8000057a:	0000                	.insn	2, 0x
