
rv64uzfh-p-fdiv:     file format elf64-littleriscv


Disassembly of section .text.init:

0000000080000000 <_start>:
    80000000:	0500006f          	j	80000050 <reset_vector>

0000000080000004 <trap_vector>:
    80000004:	34202f73          	csrr	t5,mcause
    80000008:	00800f93          	li	t6,8
    8000000c:	03ff0863          	beq	t5,t6,8000003c <write_tohost>
    80000010:	00900f93          	li	t6,9
    80000014:	03ff0463          	beq	t5,t6,8000003c <write_tohost>
    80000018:	00b00f93          	li	t6,11
    8000001c:	03ff0063          	beq	t5,t6,8000003c <write_tohost>
    80000020:	00000f13          	li	t5,0
    80000024:	000f0463          	beqz	t5,8000002c <trap_vector+0x28>
    80000028:	000f0067          	jr	t5
    8000002c:	34202f73          	csrr	t5,mcause
    80000030:	000f5463          	bgez	t5,80000038 <handle_exception>
    80000034:	0040006f          	j	80000038 <handle_exception>

0000000080000038 <handle_exception>:
    80000038:	5391e193          	ori	gp,gp,1337

000000008000003c <write_tohost>:
    8000003c:	00001f17          	auipc	t5,0x1
    80000040:	fc3f2223          	sw	gp,-60(t5) # 80001000 <tohost>
    80000044:	00001f17          	auipc	t5,0x1
    80000048:	fc0f2023          	sw	zero,-64(t5) # 80001004 <tohost+0x4>
    8000004c:	ff1ff06f          	j	8000003c <write_tohost>

0000000080000050 <reset_vector>:
    80000050:	00000093          	li	ra,0
    80000054:	00000113          	li	sp,0
    80000058:	00000193          	li	gp,0
    8000005c:	00000213          	li	tp,0
    80000060:	00000293          	li	t0,0
    80000064:	00000313          	li	t1,0
    80000068:	00000393          	li	t2,0
    8000006c:	00000413          	li	s0,0
    80000070:	00000493          	li	s1,0
    80000074:	00000513          	li	a0,0
    80000078:	00000593          	li	a1,0
    8000007c:	00000613          	li	a2,0
    80000080:	00000693          	li	a3,0
    80000084:	00000713          	li	a4,0
    80000088:	00000793          	li	a5,0
    8000008c:	00000813          	li	a6,0
    80000090:	00000893          	li	a7,0
    80000094:	00000913          	li	s2,0
    80000098:	00000993          	li	s3,0
    8000009c:	00000a13          	li	s4,0
    800000a0:	00000a93          	li	s5,0
    800000a4:	00000b13          	li	s6,0
    800000a8:	00000b93          	li	s7,0
    800000ac:	00000c13          	li	s8,0
    800000b0:	00000c93          	li	s9,0
    800000b4:	00000d13          	li	s10,0
    800000b8:	00000d93          	li	s11,0
    800000bc:	00000e13          	li	t3,0
    800000c0:	00000e93          	li	t4,0
    800000c4:	00000f13          	li	t5,0
    800000c8:	00000f93          	li	t6,0
    800000cc:	f1402573          	csrr	a0,mhartid
    800000d0:	00051063          	bnez	a0,800000d0 <reset_vector+0x80>
    800000d4:	00000297          	auipc	t0,0x0
    800000d8:	01028293          	addi	t0,t0,16 # 800000e4 <reset_vector+0x94>
    800000dc:	30529073          	csrw	mtvec,t0
    800000e0:	74445073          	csrwi	0x744,8
    800000e4:	00000297          	auipc	t0,0x0
    800000e8:	01028293          	addi	t0,t0,16 # 800000f4 <reset_vector+0xa4>
    800000ec:	30529073          	csrw	mtvec,t0
    800000f0:	18005073          	csrwi	satp,0
    800000f4:	00000297          	auipc	t0,0x0
    800000f8:	02428293          	addi	t0,t0,36 # 80000118 <reset_vector+0xc8>
    800000fc:	30529073          	csrw	mtvec,t0
    80000100:	0010029b          	addiw	t0,zero,1
    80000104:	03529293          	slli	t0,t0,0x35
    80000108:	fff28293          	addi	t0,t0,-1
    8000010c:	3b029073          	csrw	pmpaddr0,t0
    80000110:	01f00293          	li	t0,31
    80000114:	3a029073          	csrw	pmpcfg0,t0
    80000118:	30405073          	csrwi	mie,0
    8000011c:	00000297          	auipc	t0,0x0
    80000120:	01428293          	addi	t0,t0,20 # 80000130 <reset_vector+0xe0>
    80000124:	30529073          	csrw	mtvec,t0
    80000128:	30205073          	csrwi	medeleg,0
    8000012c:	30305073          	csrwi	mideleg,0
    80000130:	00000193          	li	gp,0
    80000134:	00000297          	auipc	t0,0x0
    80000138:	ed028293          	addi	t0,t0,-304 # 80000004 <trap_vector>
    8000013c:	30529073          	csrw	mtvec,t0
    80000140:	00100513          	li	a0,1
    80000144:	01f51513          	slli	a0,a0,0x1f
    80000148:	00055c63          	bgez	a0,80000160 <reset_vector+0x110>
    8000014c:	0ff0000f          	fence
    80000150:	00100193          	li	gp,1
    80000154:	05d00893          	li	a7,93
    80000158:	00000513          	li	a0,0
    8000015c:	00000073          	ecall
    80000160:	00000293          	li	t0,0
    80000164:	00028a63          	beqz	t0,80000178 <reset_vector+0x128>
    80000168:	10529073          	csrw	stvec,t0
    8000016c:	0000b2b7          	lui	t0,0xb
    80000170:	1092829b          	addiw	t0,t0,265 # b109 <_start-0x7fff4ef7>
    80000174:	30229073          	csrw	medeleg,t0
    80000178:	30005073          	csrwi	mstatus,0
    8000017c:	00002537          	lui	a0,0x2
    80000180:	30052073          	csrs	mstatus,a0
    80000184:	00305073          	csrwi	fcsr,0
    80000188:	00000297          	auipc	t0,0x0
    8000018c:	01428293          	addi	t0,t0,20 # 8000019c <test_2>
    80000190:	34129073          	csrw	mepc,t0
    80000194:	f1402573          	csrr	a0,mhartid
    80000198:	30200073          	mret

000000008000019c <test_2>:
    8000019c:	00200193          	li	gp,2
    800001a0:	00002517          	auipc	a0,0x2
    800001a4:	e6050513          	addi	a0,a0,-416 # 80002000 <test_2_data>
    800001a8:	00051507          	flh	fa0,0(a0)
    800001ac:	00251587          	flh	fa1,2(a0)
    800001b0:	00451607          	flh	fa2,4(a0)
    800001b4:	00651683          	lh	a3,6(a0)
    800001b8:	1cb576d3          	fdiv.h	fa3,fa0,fa1
    800001bc:	e4068553          	fmv.x.h	a0,fa3
    800001c0:	001015f3          	fsflags	a1,zero
    800001c4:	00100613          	li	a2,1
    800001c8:	14d51263          	bne	a0,a3,8000030c <fail>
    800001cc:	14c59063          	bne	a1,a2,8000030c <fail>

00000000800001d0 <test_3>:
    800001d0:	00300193          	li	gp,3
    800001d4:	00002517          	auipc	a0,0x2
    800001d8:	e3450513          	addi	a0,a0,-460 # 80002008 <test_3_data>
    800001dc:	00051507          	flh	fa0,0(a0)
    800001e0:	00251587          	flh	fa1,2(a0)
    800001e4:	00451607          	flh	fa2,4(a0)
    800001e8:	00651683          	lh	a3,6(a0)
    800001ec:	1cb576d3          	fdiv.h	fa3,fa0,fa1
    800001f0:	e4068553          	fmv.x.h	a0,fa3
    800001f4:	001015f3          	fsflags	a1,zero
    800001f8:	00100613          	li	a2,1
    800001fc:	10d51863          	bne	a0,a3,8000030c <fail>
    80000200:	10c59663          	bne	a1,a2,8000030c <fail>

0000000080000204 <test_4>:
    80000204:	00400193          	li	gp,4
    80000208:	00002517          	auipc	a0,0x2
    8000020c:	e0850513          	addi	a0,a0,-504 # 80002010 <test_4_data>
    80000210:	00051507          	flh	fa0,0(a0)
    80000214:	00251587          	flh	fa1,2(a0)
    80000218:	00451607          	flh	fa2,4(a0)
    8000021c:	00651683          	lh	a3,6(a0)
    80000220:	1cb576d3          	fdiv.h	fa3,fa0,fa1
    80000224:	e4068553          	fmv.x.h	a0,fa3
    80000228:	001015f3          	fsflags	a1,zero
    8000022c:	00000613          	li	a2,0
    80000230:	0cd51e63          	bne	a0,a3,8000030c <fail>
    80000234:	0cc59c63          	bne	a1,a2,8000030c <fail>

0000000080000238 <test_5>:
    80000238:	00500193          	li	gp,5
    8000023c:	00002517          	auipc	a0,0x2
    80000240:	ddc50513          	addi	a0,a0,-548 # 80002018 <test_5_data>
    80000244:	00051507          	flh	fa0,0(a0)
    80000248:	00251587          	flh	fa1,2(a0)
    8000024c:	00451607          	flh	fa2,4(a0)
    80000250:	00651683          	lh	a3,6(a0)
    80000254:	5c0576d3          	fsqrt.h	fa3,fa0
    80000258:	e4068553          	fmv.x.h	a0,fa3
    8000025c:	001015f3          	fsflags	a1,zero
    80000260:	00100613          	li	a2,1
    80000264:	0ad51463          	bne	a0,a3,8000030c <fail>
    80000268:	0ac59263          	bne	a1,a2,8000030c <fail>

000000008000026c <test_6>:
    8000026c:	00600193          	li	gp,6
    80000270:	00002517          	auipc	a0,0x2
    80000274:	db050513          	addi	a0,a0,-592 # 80002020 <test_6_data>
    80000278:	00051507          	flh	fa0,0(a0)
    8000027c:	00251587          	flh	fa1,2(a0)
    80000280:	00451607          	flh	fa2,4(a0)
    80000284:	00651683          	lh	a3,6(a0)
    80000288:	5c0576d3          	fsqrt.h	fa3,fa0
    8000028c:	e4068553          	fmv.x.h	a0,fa3
    80000290:	001015f3          	fsflags	a1,zero
    80000294:	00000613          	li	a2,0
    80000298:	06d51a63          	bne	a0,a3,8000030c <fail>
    8000029c:	06c59863          	bne	a1,a2,8000030c <fail>

00000000800002a0 <test_7>:
    800002a0:	00700193          	li	gp,7
    800002a4:	00002517          	auipc	a0,0x2
    800002a8:	d8450513          	addi	a0,a0,-636 # 80002028 <test_7_data>
    800002ac:	00051507          	flh	fa0,0(a0)
    800002b0:	00251587          	flh	fa1,2(a0)
    800002b4:	00451607          	flh	fa2,4(a0)
    800002b8:	00651683          	lh	a3,6(a0)
    800002bc:	5c0576d3          	fsqrt.h	fa3,fa0
    800002c0:	e4068553          	fmv.x.h	a0,fa3
    800002c4:	001015f3          	fsflags	a1,zero
    800002c8:	01000613          	li	a2,16
    800002cc:	04d51063          	bne	a0,a3,8000030c <fail>
    800002d0:	02c59e63          	bne	a1,a2,8000030c <fail>

00000000800002d4 <test_8>:
    800002d4:	00800193          	li	gp,8
    800002d8:	00002517          	auipc	a0,0x2
    800002dc:	d5a50513          	addi	a0,a0,-678 # 80002032 <test_8_data>
    800002e0:	00051507          	flh	fa0,0(a0)
    800002e4:	00251587          	flh	fa1,2(a0)
    800002e8:	00451607          	flh	fa2,4(a0)
    800002ec:	00651683          	lh	a3,6(a0)
    800002f0:	5c0576d3          	fsqrt.h	fa3,fa0
    800002f4:	e4068553          	fmv.x.h	a0,fa3
    800002f8:	001015f3          	fsflags	a1,zero
    800002fc:	00100613          	li	a2,1
    80000300:	00d51663          	bne	a0,a3,8000030c <fail>
    80000304:	00c59463          	bne	a1,a2,8000030c <fail>
    80000308:	02301063          	bne	zero,gp,80000328 <pass>

000000008000030c <fail>:
    8000030c:	0ff0000f          	fence
    80000310:	00018063          	beqz	gp,80000310 <fail+0x4>
    80000314:	00119193          	slli	gp,gp,0x1
    80000318:	0011e193          	ori	gp,gp,1
    8000031c:	05d00893          	li	a7,93
    80000320:	00018513          	mv	a0,gp
    80000324:	00000073          	ecall

0000000080000328 <pass>:
    80000328:	0ff0000f          	fence
    8000032c:	00100193          	li	gp,1
    80000330:	05d00893          	li	a7,93
    80000334:	00000513          	li	a0,0
    80000338:	00000073          	ecall
    8000033c:	c0001073          	unimp
    80000340:	0000                	.insn	2, 0x
    80000342:	0000                	.insn	2, 0x
    80000344:	0000                	.insn	2, 0x
    80000346:	0000                	.insn	2, 0x
    80000348:	0000                	.insn	2, 0x
    8000034a:	0000                	.insn	2, 0x
    8000034c:	0000                	.insn	2, 0x
    8000034e:	0000                	.insn	2, 0x
    80000350:	0000                	.insn	2, 0x
    80000352:	0000                	.insn	2, 0x
    80000354:	0000                	.insn	2, 0x
    80000356:	0000                	.insn	2, 0x
    80000358:	0000                	.insn	2, 0x
    8000035a:	0000                	.insn	2, 0x
    8000035c:	0000                	.insn	2, 0x
    8000035e:	0000                	.insn	2, 0x
    80000360:	0000                	.insn	2, 0x
    80000362:	0000                	.insn	2, 0x
    80000364:	0000                	.insn	2, 0x
    80000366:	0000                	.insn	2, 0x
    80000368:	0000                	.insn	2, 0x
    8000036a:	0000                	.insn	2, 0x
    8000036c:	0000                	.insn	2, 0x
    8000036e:	0000                	.insn	2, 0x
    80000370:	0000                	.insn	2, 0x
    80000372:	0000                	.insn	2, 0x
    80000374:	0000                	.insn	2, 0x
    80000376:	0000                	.insn	2, 0x
    80000378:	0000                	.insn	2, 0x
    8000037a:	0000                	.insn	2, 0x
