
rv64ui-p-ld:     file format elf64-littleriscv


Disassembly of section .text.init:

0000000080000000 <_start>:
    80000000:	0500006f          	j	80000050 <reset_vector>

0000000080000004 <trap_vector>:
    80000004:	34202f73          	csrr	t5,mcause
    80000008:	00800f93          	li	t6,8
    8000000c:	03ff0863          	beq	t5,t6,8000003c <write_tohost>
    80000010:	00900f93          	li	t6,9
    80000014:	03ff0463          	beq	t5,t6,8000003c <write_tohost>
    80000018:	00b00f93          	li	t6,11
    8000001c:	03ff0063          	beq	t5,t6,8000003c <write_tohost>
    80000020:	00000f13          	li	t5,0
    80000024:	000f0463          	beqz	t5,8000002c <trap_vector+0x28>
    80000028:	000f0067          	jr	t5
    8000002c:	34202f73          	csrr	t5,mcause
    80000030:	000f5463          	bgez	t5,80000038 <handle_exception>
    80000034:	0040006f          	j	80000038 <handle_exception>

0000000080000038 <handle_exception>:
    80000038:	5391e193          	ori	gp,gp,1337

000000008000003c <write_tohost>:
    8000003c:	00001f17          	auipc	t5,0x1
    80000040:	fc3f2223          	sw	gp,-60(t5) # 80001000 <tohost>
    80000044:	00001f17          	auipc	t5,0x1
    80000048:	fc0f2023          	sw	zero,-64(t5) # 80001004 <tohost+0x4>
    8000004c:	ff1ff06f          	j	8000003c <write_tohost>

0000000080000050 <reset_vector>:
    80000050:	00000093          	li	ra,0
    80000054:	00000113          	li	sp,0
    80000058:	00000193          	li	gp,0
    8000005c:	00000213          	li	tp,0
    80000060:	00000293          	li	t0,0
    80000064:	00000313          	li	t1,0
    80000068:	00000393          	li	t2,0
    8000006c:	00000413          	li	s0,0
    80000070:	00000493          	li	s1,0
    80000074:	00000513          	li	a0,0
    80000078:	00000593          	li	a1,0
    8000007c:	00000613          	li	a2,0
    80000080:	00000693          	li	a3,0
    80000084:	00000713          	li	a4,0
    80000088:	00000793          	li	a5,0
    8000008c:	00000813          	li	a6,0
    80000090:	00000893          	li	a7,0
    80000094:	00000913          	li	s2,0
    80000098:	00000993          	li	s3,0
    8000009c:	00000a13          	li	s4,0
    800000a0:	00000a93          	li	s5,0
    800000a4:	00000b13          	li	s6,0
    800000a8:	00000b93          	li	s7,0
    800000ac:	00000c13          	li	s8,0
    800000b0:	00000c93          	li	s9,0
    800000b4:	00000d13          	li	s10,0
    800000b8:	00000d93          	li	s11,0
    800000bc:	00000e13          	li	t3,0
    800000c0:	00000e93          	li	t4,0
    800000c4:	00000f13          	li	t5,0
    800000c8:	00000f93          	li	t6,0
    800000cc:	f1402573          	csrr	a0,mhartid
    800000d0:	00051063          	bnez	a0,800000d0 <reset_vector+0x80>
    800000d4:	00000297          	auipc	t0,0x0
    800000d8:	01028293          	addi	t0,t0,16 # 800000e4 <reset_vector+0x94>
    800000dc:	30529073          	csrw	mtvec,t0
    800000e0:	74445073          	csrwi	0x744,8
    800000e4:	00000297          	auipc	t0,0x0
    800000e8:	01028293          	addi	t0,t0,16 # 800000f4 <reset_vector+0xa4>
    800000ec:	30529073          	csrw	mtvec,t0
    800000f0:	18005073          	csrwi	satp,0
    800000f4:	00000297          	auipc	t0,0x0
    800000f8:	02428293          	addi	t0,t0,36 # 80000118 <reset_vector+0xc8>
    800000fc:	30529073          	csrw	mtvec,t0
    80000100:	0010029b          	addiw	t0,zero,1
    80000104:	03529293          	slli	t0,t0,0x35
    80000108:	fff28293          	addi	t0,t0,-1
    8000010c:	3b029073          	csrw	pmpaddr0,t0
    80000110:	01f00293          	li	t0,31
    80000114:	3a029073          	csrw	pmpcfg0,t0
    80000118:	30405073          	csrwi	mie,0
    8000011c:	00000297          	auipc	t0,0x0
    80000120:	01428293          	addi	t0,t0,20 # 80000130 <reset_vector+0xe0>
    80000124:	30529073          	csrw	mtvec,t0
    80000128:	30205073          	csrwi	medeleg,0
    8000012c:	30305073          	csrwi	mideleg,0
    80000130:	00000193          	li	gp,0
    80000134:	00000297          	auipc	t0,0x0
    80000138:	ed028293          	addi	t0,t0,-304 # 80000004 <trap_vector>
    8000013c:	30529073          	csrw	mtvec,t0
    80000140:	00100513          	li	a0,1
    80000144:	01f51513          	slli	a0,a0,0x1f
    80000148:	00055c63          	bgez	a0,80000160 <reset_vector+0x110>
    8000014c:	0ff0000f          	fence
    80000150:	00100193          	li	gp,1
    80000154:	05d00893          	li	a7,93
    80000158:	00000513          	li	a0,0
    8000015c:	00000073          	ecall
    80000160:	00000293          	li	t0,0
    80000164:	00028a63          	beqz	t0,80000178 <reset_vector+0x128>
    80000168:	10529073          	csrw	stvec,t0
    8000016c:	0000b2b7          	lui	t0,0xb
    80000170:	1092829b          	addiw	t0,t0,265 # b109 <_start-0x7fff4ef7>
    80000174:	30229073          	csrw	medeleg,t0
    80000178:	30005073          	csrwi	mstatus,0
    8000017c:	00000297          	auipc	t0,0x0
    80000180:	01428293          	addi	t0,t0,20 # 80000190 <test_2>
    80000184:	34129073          	csrw	mepc,t0
    80000188:	f1402573          	csrr	a0,mhartid
    8000018c:	30200073          	mret

0000000080000190 <test_2>:
    80000190:	00200193          	li	gp,2
    80000194:	00ff07b7          	lui	a5,0xff0
    80000198:	0ff7879b          	addiw	a5,a5,255 # ff00ff <_start-0x7f00ff01>
    8000019c:	01079793          	slli	a5,a5,0x10
    800001a0:	0ff78793          	addi	a5,a5,255
    800001a4:	01079793          	slli	a5,a5,0x10
    800001a8:	0ff78793          	addi	a5,a5,255
    800001ac:	00002117          	auipc	sp,0x2
    800001b0:	e5410113          	addi	sp,sp,-428 # 80002000 <begin_signature>
    800001b4:	00013703          	ld	a4,0(sp)
    800001b8:	00ff03b7          	lui	t2,0xff0
    800001bc:	0ff3839b          	addiw	t2,t2,255 # ff00ff <_start-0x7f00ff01>
    800001c0:	01039393          	slli	t2,t2,0x10
    800001c4:	0ff38393          	addi	t2,t2,255
    800001c8:	01039393          	slli	t2,t2,0x10
    800001cc:	0ff38393          	addi	t2,t2,255
    800001d0:	46771663          	bne	a4,t2,8000063c <fail>

00000000800001d4 <test_3>:
    800001d4:	00300193          	li	gp,3
    800001d8:	ff0107b7          	lui	a5,0xff010
    800001dc:	f017879b          	addiw	a5,a5,-255 # ffffffffff00ff01 <_end+0xffffffff7f00dee1>
    800001e0:	01079793          	slli	a5,a5,0x10
    800001e4:	f0178793          	addi	a5,a5,-255
    800001e8:	01079793          	slli	a5,a5,0x10
    800001ec:	f0078793          	addi	a5,a5,-256
    800001f0:	00002117          	auipc	sp,0x2
    800001f4:	e1010113          	addi	sp,sp,-496 # 80002000 <begin_signature>
    800001f8:	00813703          	ld	a4,8(sp)
    800001fc:	ff0103b7          	lui	t2,0xff010
    80000200:	f013839b          	addiw	t2,t2,-255 # ffffffffff00ff01 <_end+0xffffffff7f00dee1>
    80000204:	01039393          	slli	t2,t2,0x10
    80000208:	f0138393          	addi	t2,t2,-255
    8000020c:	01039393          	slli	t2,t2,0x10
    80000210:	f0038393          	addi	t2,t2,-256
    80000214:	42771463          	bne	a4,t2,8000063c <fail>

0000000080000218 <test_4>:
    80000218:	00400193          	li	gp,4
    8000021c:	000107b7          	lui	a5,0x10
    80000220:	f017879b          	addiw	a5,a5,-255 # ff01 <_start-0x7fff00ff>
    80000224:	01079793          	slli	a5,a5,0x10
    80000228:	f0178793          	addi	a5,a5,-255
    8000022c:	01079793          	slli	a5,a5,0x10
    80000230:	f0178793          	addi	a5,a5,-255
    80000234:	00c79793          	slli	a5,a5,0xc
    80000238:	ff078793          	addi	a5,a5,-16
    8000023c:	00002117          	auipc	sp,0x2
    80000240:	dc410113          	addi	sp,sp,-572 # 80002000 <begin_signature>
    80000244:	01013703          	ld	a4,16(sp)
    80000248:	000103b7          	lui	t2,0x10
    8000024c:	f013839b          	addiw	t2,t2,-255 # ff01 <_start-0x7fff00ff>
    80000250:	01039393          	slli	t2,t2,0x10
    80000254:	f0138393          	addi	t2,t2,-255
    80000258:	01039393          	slli	t2,t2,0x10
    8000025c:	f0138393          	addi	t2,t2,-255
    80000260:	00c39393          	slli	t2,t2,0xc
    80000264:	ff038393          	addi	t2,t2,-16
    80000268:	3c771a63          	bne	a4,t2,8000063c <fail>

000000008000026c <test_5>:
    8000026c:	00500193          	li	gp,5
    80000270:	ffff07b7          	lui	a5,0xffff0
    80000274:	0ff7879b          	addiw	a5,a5,255 # ffffffffffff00ff <_end+0xffffffff7ffee0df>
    80000278:	01079793          	slli	a5,a5,0x10
    8000027c:	0ff78793          	addi	a5,a5,255
    80000280:	01079793          	slli	a5,a5,0x10
    80000284:	0ff78793          	addi	a5,a5,255
    80000288:	00c79793          	slli	a5,a5,0xc
    8000028c:	00f78793          	addi	a5,a5,15
    80000290:	00002117          	auipc	sp,0x2
    80000294:	d7010113          	addi	sp,sp,-656 # 80002000 <begin_signature>
    80000298:	01813703          	ld	a4,24(sp)
    8000029c:	ffff03b7          	lui	t2,0xffff0
    800002a0:	0ff3839b          	addiw	t2,t2,255 # ffffffffffff00ff <_end+0xffffffff7ffee0df>
    800002a4:	01039393          	slli	t2,t2,0x10
    800002a8:	0ff38393          	addi	t2,t2,255
    800002ac:	01039393          	slli	t2,t2,0x10
    800002b0:	0ff38393          	addi	t2,t2,255
    800002b4:	00c39393          	slli	t2,t2,0xc
    800002b8:	00f38393          	addi	t2,t2,15
    800002bc:	38771063          	bne	a4,t2,8000063c <fail>

00000000800002c0 <test_6>:
    800002c0:	00600193          	li	gp,6
    800002c4:	00ff07b7          	lui	a5,0xff0
    800002c8:	0ff7879b          	addiw	a5,a5,255 # ff00ff <_start-0x7f00ff01>
    800002cc:	01079793          	slli	a5,a5,0x10
    800002d0:	0ff78793          	addi	a5,a5,255
    800002d4:	01079793          	slli	a5,a5,0x10
    800002d8:	0ff78793          	addi	a5,a5,255
    800002dc:	00002117          	auipc	sp,0x2
    800002e0:	d3c10113          	addi	sp,sp,-708 # 80002018 <tdat4>
    800002e4:	fe813703          	ld	a4,-24(sp)
    800002e8:	00ff03b7          	lui	t2,0xff0
    800002ec:	0ff3839b          	addiw	t2,t2,255 # ff00ff <_start-0x7f00ff01>
    800002f0:	01039393          	slli	t2,t2,0x10
    800002f4:	0ff38393          	addi	t2,t2,255
    800002f8:	01039393          	slli	t2,t2,0x10
    800002fc:	0ff38393          	addi	t2,t2,255
    80000300:	32771e63          	bne	a4,t2,8000063c <fail>

0000000080000304 <test_7>:
    80000304:	00700193          	li	gp,7
    80000308:	ff0107b7          	lui	a5,0xff010
    8000030c:	f017879b          	addiw	a5,a5,-255 # ffffffffff00ff01 <_end+0xffffffff7f00dee1>
    80000310:	01079793          	slli	a5,a5,0x10
    80000314:	f0178793          	addi	a5,a5,-255
    80000318:	01079793          	slli	a5,a5,0x10
    8000031c:	f0078793          	addi	a5,a5,-256
    80000320:	00002117          	auipc	sp,0x2
    80000324:	cf810113          	addi	sp,sp,-776 # 80002018 <tdat4>
    80000328:	ff013703          	ld	a4,-16(sp)
    8000032c:	ff0103b7          	lui	t2,0xff010
    80000330:	f013839b          	addiw	t2,t2,-255 # ffffffffff00ff01 <_end+0xffffffff7f00dee1>
    80000334:	01039393          	slli	t2,t2,0x10
    80000338:	f0138393          	addi	t2,t2,-255
    8000033c:	01039393          	slli	t2,t2,0x10
    80000340:	f0038393          	addi	t2,t2,-256
    80000344:	2e771c63          	bne	a4,t2,8000063c <fail>

0000000080000348 <test_8>:
    80000348:	00800193          	li	gp,8
    8000034c:	000107b7          	lui	a5,0x10
    80000350:	f017879b          	addiw	a5,a5,-255 # ff01 <_start-0x7fff00ff>
    80000354:	01079793          	slli	a5,a5,0x10
    80000358:	f0178793          	addi	a5,a5,-255
    8000035c:	01079793          	slli	a5,a5,0x10
    80000360:	f0178793          	addi	a5,a5,-255
    80000364:	00c79793          	slli	a5,a5,0xc
    80000368:	ff078793          	addi	a5,a5,-16
    8000036c:	00002117          	auipc	sp,0x2
    80000370:	cac10113          	addi	sp,sp,-852 # 80002018 <tdat4>
    80000374:	ff813703          	ld	a4,-8(sp)
    80000378:	000103b7          	lui	t2,0x10
    8000037c:	f013839b          	addiw	t2,t2,-255 # ff01 <_start-0x7fff00ff>
    80000380:	01039393          	slli	t2,t2,0x10
    80000384:	f0138393          	addi	t2,t2,-255
    80000388:	01039393          	slli	t2,t2,0x10
    8000038c:	f0138393          	addi	t2,t2,-255
    80000390:	00c39393          	slli	t2,t2,0xc
    80000394:	ff038393          	addi	t2,t2,-16
    80000398:	2a771263          	bne	a4,t2,8000063c <fail>

000000008000039c <test_9>:
    8000039c:	00900193          	li	gp,9
    800003a0:	ffff07b7          	lui	a5,0xffff0
    800003a4:	0ff7879b          	addiw	a5,a5,255 # ffffffffffff00ff <_end+0xffffffff7ffee0df>
    800003a8:	01079793          	slli	a5,a5,0x10
    800003ac:	0ff78793          	addi	a5,a5,255
    800003b0:	01079793          	slli	a5,a5,0x10
    800003b4:	0ff78793          	addi	a5,a5,255
    800003b8:	00c79793          	slli	a5,a5,0xc
    800003bc:	00f78793          	addi	a5,a5,15
    800003c0:	00002117          	auipc	sp,0x2
    800003c4:	c5810113          	addi	sp,sp,-936 # 80002018 <tdat4>
    800003c8:	00013703          	ld	a4,0(sp)
    800003cc:	ffff03b7          	lui	t2,0xffff0
    800003d0:	0ff3839b          	addiw	t2,t2,255 # ffffffffffff00ff <_end+0xffffffff7ffee0df>
    800003d4:	01039393          	slli	t2,t2,0x10
    800003d8:	0ff38393          	addi	t2,t2,255
    800003dc:	01039393          	slli	t2,t2,0x10
    800003e0:	0ff38393          	addi	t2,t2,255
    800003e4:	00c39393          	slli	t2,t2,0xc
    800003e8:	00f38393          	addi	t2,t2,15
    800003ec:	24771863          	bne	a4,t2,8000063c <fail>

00000000800003f0 <test_10>:
    800003f0:	00a00193          	li	gp,10
    800003f4:	00002097          	auipc	ra,0x2
    800003f8:	c0c08093          	addi	ra,ra,-1012 # 80002000 <begin_signature>
    800003fc:	fe008093          	addi	ra,ra,-32
    80000400:	0200b283          	ld	t0,32(ra)
    80000404:	00ff03b7          	lui	t2,0xff0
    80000408:	0ff3839b          	addiw	t2,t2,255 # ff00ff <_start-0x7f00ff01>
    8000040c:	01039393          	slli	t2,t2,0x10
    80000410:	0ff38393          	addi	t2,t2,255
    80000414:	01039393          	slli	t2,t2,0x10
    80000418:	0ff38393          	addi	t2,t2,255
    8000041c:	22729063          	bne	t0,t2,8000063c <fail>

0000000080000420 <test_11>:
    80000420:	00b00193          	li	gp,11
    80000424:	00002097          	auipc	ra,0x2
    80000428:	bdc08093          	addi	ra,ra,-1060 # 80002000 <begin_signature>
    8000042c:	ffd08093          	addi	ra,ra,-3
    80000430:	00b0b283          	ld	t0,11(ra)
    80000434:	ff0103b7          	lui	t2,0xff010
    80000438:	f013839b          	addiw	t2,t2,-255 # ffffffffff00ff01 <_end+0xffffffff7f00dee1>
    8000043c:	01039393          	slli	t2,t2,0x10
    80000440:	f0138393          	addi	t2,t2,-255
    80000444:	01039393          	slli	t2,t2,0x10
    80000448:	f0038393          	addi	t2,t2,-256
    8000044c:	1e729863          	bne	t0,t2,8000063c <fail>

0000000080000450 <test_12>:
    80000450:	00c00193          	li	gp,12
    80000454:	00000213          	li	tp,0
    80000458:	00002697          	auipc	a3,0x2
    8000045c:	bb068693          	addi	a3,a3,-1104 # 80002008 <tdat2>
    80000460:	0086b703          	ld	a4,8(a3)
    80000464:	00070313          	mv	t1,a4
    80000468:	000103b7          	lui	t2,0x10
    8000046c:	f013839b          	addiw	t2,t2,-255 # ff01 <_start-0x7fff00ff>
    80000470:	01039393          	slli	t2,t2,0x10
    80000474:	f0138393          	addi	t2,t2,-255
    80000478:	01039393          	slli	t2,t2,0x10
    8000047c:	f0138393          	addi	t2,t2,-255
    80000480:	00c39393          	slli	t2,t2,0xc
    80000484:	ff038393          	addi	t2,t2,-16
    80000488:	1a731a63          	bne	t1,t2,8000063c <fail>
    8000048c:	00120213          	addi	tp,tp,1 # 1 <_start-0x7fffffff>
    80000490:	00200293          	li	t0,2
    80000494:	fc5212e3          	bne	tp,t0,80000458 <test_12+0x8>

0000000080000498 <test_13>:
    80000498:	00d00193          	li	gp,13
    8000049c:	00000213          	li	tp,0
    800004a0:	00002697          	auipc	a3,0x2
    800004a4:	b7068693          	addi	a3,a3,-1168 # 80002010 <tdat3>
    800004a8:	0086b703          	ld	a4,8(a3)
    800004ac:	00000013          	nop
    800004b0:	00070313          	mv	t1,a4
    800004b4:	ffff03b7          	lui	t2,0xffff0
    800004b8:	0ff3839b          	addiw	t2,t2,255 # ffffffffffff00ff <_end+0xffffffff7ffee0df>
    800004bc:	01039393          	slli	t2,t2,0x10
    800004c0:	0ff38393          	addi	t2,t2,255
    800004c4:	01039393          	slli	t2,t2,0x10
    800004c8:	0ff38393          	addi	t2,t2,255
    800004cc:	00c39393          	slli	t2,t2,0xc
    800004d0:	00f38393          	addi	t2,t2,15
    800004d4:	16731463          	bne	t1,t2,8000063c <fail>
    800004d8:	00120213          	addi	tp,tp,1 # 1 <_start-0x7fffffff>
    800004dc:	00200293          	li	t0,2
    800004e0:	fc5210e3          	bne	tp,t0,800004a0 <test_13+0x8>

00000000800004e4 <test_14>:
    800004e4:	00e00193          	li	gp,14
    800004e8:	00000213          	li	tp,0
    800004ec:	00002697          	auipc	a3,0x2
    800004f0:	b1468693          	addi	a3,a3,-1260 # 80002000 <begin_signature>
    800004f4:	0086b703          	ld	a4,8(a3)
    800004f8:	00000013          	nop
    800004fc:	00000013          	nop
    80000500:	00070313          	mv	t1,a4
    80000504:	ff0103b7          	lui	t2,0xff010
    80000508:	f013839b          	addiw	t2,t2,-255 # ffffffffff00ff01 <_end+0xffffffff7f00dee1>
    8000050c:	01039393          	slli	t2,t2,0x10
    80000510:	f0138393          	addi	t2,t2,-255
    80000514:	01039393          	slli	t2,t2,0x10
    80000518:	f0038393          	addi	t2,t2,-256
    8000051c:	12731063          	bne	t1,t2,8000063c <fail>
    80000520:	00120213          	addi	tp,tp,1 # 1 <_start-0x7fffffff>
    80000524:	00200293          	li	t0,2
    80000528:	fc5212e3          	bne	tp,t0,800004ec <test_14+0x8>

000000008000052c <test_15>:
    8000052c:	00f00193          	li	gp,15
    80000530:	00000213          	li	tp,0
    80000534:	00002697          	auipc	a3,0x2
    80000538:	ad468693          	addi	a3,a3,-1324 # 80002008 <tdat2>
    8000053c:	0086b703          	ld	a4,8(a3)
    80000540:	000103b7          	lui	t2,0x10
    80000544:	f013839b          	addiw	t2,t2,-255 # ff01 <_start-0x7fff00ff>
    80000548:	01039393          	slli	t2,t2,0x10
    8000054c:	f0138393          	addi	t2,t2,-255
    80000550:	01039393          	slli	t2,t2,0x10
    80000554:	f0138393          	addi	t2,t2,-255
    80000558:	00c39393          	slli	t2,t2,0xc
    8000055c:	ff038393          	addi	t2,t2,-16
    80000560:	0c771e63          	bne	a4,t2,8000063c <fail>
    80000564:	00120213          	addi	tp,tp,1 # 1 <_start-0x7fffffff>
    80000568:	00200293          	li	t0,2
    8000056c:	fc5214e3          	bne	tp,t0,80000534 <test_15+0x8>

0000000080000570 <test_16>:
    80000570:	01000193          	li	gp,16
    80000574:	00000213          	li	tp,0
    80000578:	00002697          	auipc	a3,0x2
    8000057c:	a9868693          	addi	a3,a3,-1384 # 80002010 <tdat3>
    80000580:	00000013          	nop
    80000584:	0086b703          	ld	a4,8(a3)
    80000588:	ffff03b7          	lui	t2,0xffff0
    8000058c:	0ff3839b          	addiw	t2,t2,255 # ffffffffffff00ff <_end+0xffffffff7ffee0df>
    80000590:	01039393          	slli	t2,t2,0x10
    80000594:	0ff38393          	addi	t2,t2,255
    80000598:	01039393          	slli	t2,t2,0x10
    8000059c:	0ff38393          	addi	t2,t2,255
    800005a0:	00c39393          	slli	t2,t2,0xc
    800005a4:	00f38393          	addi	t2,t2,15
    800005a8:	08771a63          	bne	a4,t2,8000063c <fail>
    800005ac:	00120213          	addi	tp,tp,1 # 1 <_start-0x7fffffff>
    800005b0:	00200293          	li	t0,2
    800005b4:	fc5212e3          	bne	tp,t0,80000578 <test_16+0x8>

00000000800005b8 <test_17>:
    800005b8:	01100193          	li	gp,17
    800005bc:	00000213          	li	tp,0
    800005c0:	00002697          	auipc	a3,0x2
    800005c4:	a4068693          	addi	a3,a3,-1472 # 80002000 <begin_signature>
    800005c8:	00000013          	nop
    800005cc:	00000013          	nop
    800005d0:	0086b703          	ld	a4,8(a3)
    800005d4:	ff0103b7          	lui	t2,0xff010
    800005d8:	f013839b          	addiw	t2,t2,-255 # ffffffffff00ff01 <_end+0xffffffff7f00dee1>
    800005dc:	01039393          	slli	t2,t2,0x10
    800005e0:	f0138393          	addi	t2,t2,-255
    800005e4:	01039393          	slli	t2,t2,0x10
    800005e8:	f0038393          	addi	t2,t2,-256
    800005ec:	04771863          	bne	a4,t2,8000063c <fail>
    800005f0:	00120213          	addi	tp,tp,1 # 1 <_start-0x7fffffff>
    800005f4:	00200293          	li	t0,2
    800005f8:	fc5214e3          	bne	tp,t0,800005c0 <test_17+0x8>

00000000800005fc <test_18>:
    800005fc:	01200193          	li	gp,18
    80000600:	00002297          	auipc	t0,0x2
    80000604:	a0028293          	addi	t0,t0,-1536 # 80002000 <begin_signature>
    80000608:	0002b103          	ld	sp,0(t0)
    8000060c:	00200113          	li	sp,2
    80000610:	00200393          	li	t2,2
    80000614:	02711463          	bne	sp,t2,8000063c <fail>

0000000080000618 <test_19>:
    80000618:	01300193          	li	gp,19
    8000061c:	00002297          	auipc	t0,0x2
    80000620:	9e428293          	addi	t0,t0,-1564 # 80002000 <begin_signature>
    80000624:	0002b103          	ld	sp,0(t0)
    80000628:	00000013          	nop
    8000062c:	00200113          	li	sp,2
    80000630:	00200393          	li	t2,2
    80000634:	00711463          	bne	sp,t2,8000063c <fail>
    80000638:	02301063          	bne	zero,gp,80000658 <pass>

000000008000063c <fail>:
    8000063c:	0ff0000f          	fence
    80000640:	00018063          	beqz	gp,80000640 <fail+0x4>
    80000644:	00119193          	slli	gp,gp,0x1
    80000648:	0011e193          	ori	gp,gp,1
    8000064c:	05d00893          	li	a7,93
    80000650:	00018513          	mv	a0,gp
    80000654:	00000073          	ecall

0000000080000658 <pass>:
    80000658:	0ff0000f          	fence
    8000065c:	00100193          	li	gp,1
    80000660:	05d00893          	li	a7,93
    80000664:	00000513          	li	a0,0
    80000668:	00000073          	ecall
    8000066c:	c0001073          	unimp
    80000670:	0000                	.insn	2, 0x
    80000672:	0000                	.insn	2, 0x
    80000674:	0000                	.insn	2, 0x
    80000676:	0000                	.insn	2, 0x
    80000678:	0000                	.insn	2, 0x
    8000067a:	0000                	.insn	2, 0x
