
rv64ua-v-amomaxu_w:     file format elf64-littleriscv


Disassembly of section .text.init:

0000000080000000 <_start>:
    80000000:	00c0006f          	j	8000000c <handle_reset>

0000000080000004 <nmi_vector>:
    80000004:	2c80206f          	j	800022cc <wtf>

0000000080000008 <trap_vector>:
    80000008:	2c40206f          	j	800022cc <wtf>

000000008000000c <handle_reset>:
    8000000c:	00000093          	li	ra,0
    80000010:	00000113          	li	sp,0
    80000014:	00000193          	li	gp,0
    80000018:	00000213          	li	tp,0
    8000001c:	00000293          	li	t0,0
    80000020:	00000313          	li	t1,0
    80000024:	00000393          	li	t2,0
    80000028:	00000413          	li	s0,0
    8000002c:	00000493          	li	s1,0
    80000030:	00000513          	li	a0,0
    80000034:	00000593          	li	a1,0
    80000038:	00000613          	li	a2,0
    8000003c:	00000693          	li	a3,0
    80000040:	00000713          	li	a4,0
    80000044:	00000793          	li	a5,0
    80000048:	00000813          	li	a6,0
    8000004c:	00000893          	li	a7,0
    80000050:	00000913          	li	s2,0
    80000054:	00000993          	li	s3,0
    80000058:	00000a13          	li	s4,0
    8000005c:	00000a93          	li	s5,0
    80000060:	00000b13          	li	s6,0
    80000064:	00000b93          	li	s7,0
    80000068:	00000c13          	li	s8,0
    8000006c:	00000c93          	li	s9,0
    80000070:	00000d13          	li	s10,0
    80000074:	00000d93          	li	s11,0
    80000078:	00000e13          	li	t3,0
    8000007c:	00000e93          	li	t4,0
    80000080:	00000f13          	li	t5,0
    80000084:	00000f93          	li	t6,0
    80000088:	00000297          	auipc	t0,0x0
    8000008c:	01028293          	addi	t0,t0,16 # 80000098 <handle_reset+0x8c>
    80000090:	30529073          	csrw	mtvec,t0
    80000094:	74445073          	csrwi	0x744,8
    80000098:	00000297          	auipc	t0,0x0
    8000009c:	f7028293          	addi	t0,t0,-144 # 80000008 <trap_vector>
    800000a0:	30529073          	csrw	mtvec,t0
    800000a4:	0000c117          	auipc	sp,0xc
    800000a8:	e4410113          	addi	sp,sp,-444 # 8000bee8 <freelist_head+0x3ed8>
    800000ac:	f14022f3          	csrr	t0,mhartid
    800000b0:	00c29293          	slli	t0,t0,0xc
    800000b4:	00510133          	add	sp,sp,t0
    800000b8:	34011073          	csrw	mscratch,sp
    800000bc:	1d5020ef          	jal	80002a90 <extra_boot>
    800000c0:	00003517          	auipc	a0,0x3
    800000c4:	9e450513          	addi	a0,a0,-1564 # 80002aa4 <userstart>
    800000c8:	7c00206f          	j	80002888 <vm_boot>

00000000800000cc <pop_tf>:
    800000cc:	10853283          	ld	t0,264(a0)
    800000d0:	14129073          	csrw	sepc,t0
    800000d4:	00853083          	ld	ra,8(a0)
    800000d8:	01053103          	ld	sp,16(a0)
    800000dc:	01853183          	ld	gp,24(a0)
    800000e0:	02053203          	ld	tp,32(a0)
    800000e4:	02853283          	ld	t0,40(a0)
    800000e8:	03053303          	ld	t1,48(a0)
    800000ec:	03853383          	ld	t2,56(a0)
    800000f0:	04053403          	ld	s0,64(a0)
    800000f4:	04853483          	ld	s1,72(a0)
    800000f8:	05853583          	ld	a1,88(a0)
    800000fc:	06053603          	ld	a2,96(a0)
    80000100:	06853683          	ld	a3,104(a0)
    80000104:	07053703          	ld	a4,112(a0)
    80000108:	07853783          	ld	a5,120(a0)
    8000010c:	08053803          	ld	a6,128(a0)
    80000110:	08853883          	ld	a7,136(a0)
    80000114:	09053903          	ld	s2,144(a0)
    80000118:	09853983          	ld	s3,152(a0)
    8000011c:	0a053a03          	ld	s4,160(a0)
    80000120:	0a853a83          	ld	s5,168(a0)
    80000124:	0b053b03          	ld	s6,176(a0)
    80000128:	0b853b83          	ld	s7,184(a0)
    8000012c:	0c053c03          	ld	s8,192(a0)
    80000130:	0c853c83          	ld	s9,200(a0)
    80000134:	0d053d03          	ld	s10,208(a0)
    80000138:	0d853d83          	ld	s11,216(a0)
    8000013c:	0e053e03          	ld	t3,224(a0)
    80000140:	0e853e83          	ld	t4,232(a0)
    80000144:	0f053f03          	ld	t5,240(a0)
    80000148:	0f853f83          	ld	t6,248(a0)
    8000014c:	05053503          	ld	a0,80(a0)
    80000150:	10200073          	sret

0000000080000154 <trap_entry>:
    80000154:	14011173          	csrrw	sp,sscratch,sp
    80000158:	00113423          	sd	ra,8(sp)
    8000015c:	00313c23          	sd	gp,24(sp)
    80000160:	02413023          	sd	tp,32(sp)
    80000164:	02513423          	sd	t0,40(sp)
    80000168:	02613823          	sd	t1,48(sp)
    8000016c:	02713c23          	sd	t2,56(sp)
    80000170:	04813023          	sd	s0,64(sp)
    80000174:	04913423          	sd	s1,72(sp)
    80000178:	04a13823          	sd	a0,80(sp)
    8000017c:	04b13c23          	sd	a1,88(sp)
    80000180:	06c13023          	sd	a2,96(sp)
    80000184:	06d13423          	sd	a3,104(sp)
    80000188:	06e13823          	sd	a4,112(sp)
    8000018c:	06f13c23          	sd	a5,120(sp)
    80000190:	09013023          	sd	a6,128(sp)
    80000194:	09113423          	sd	a7,136(sp)
    80000198:	09213823          	sd	s2,144(sp)
    8000019c:	09313c23          	sd	s3,152(sp)
    800001a0:	0b413023          	sd	s4,160(sp)
    800001a4:	0b513423          	sd	s5,168(sp)
    800001a8:	0b613823          	sd	s6,176(sp)
    800001ac:	0b713c23          	sd	s7,184(sp)
    800001b0:	0d813023          	sd	s8,192(sp)
    800001b4:	0d913423          	sd	s9,200(sp)
    800001b8:	0da13823          	sd	s10,208(sp)
    800001bc:	0db13c23          	sd	s11,216(sp)
    800001c0:	0fc13023          	sd	t3,224(sp)
    800001c4:	0fd13423          	sd	t4,232(sp)
    800001c8:	0fe13823          	sd	t5,240(sp)
    800001cc:	0ff13c23          	sd	t6,248(sp)
    800001d0:	140112f3          	csrrw	t0,sscratch,sp
    800001d4:	00513823          	sd	t0,16(sp)
    800001d8:	100022f3          	csrr	t0,sstatus
    800001dc:	10513023          	sd	t0,256(sp)
    800001e0:	141022f3          	csrr	t0,sepc
    800001e4:	10513423          	sd	t0,264(sp)
    800001e8:	143022f3          	csrr	t0,stval
    800001ec:	10513823          	sd	t0,272(sp)
    800001f0:	142022f3          	csrr	t0,scause
    800001f4:	10513c23          	sd	t0,280(sp)
    800001f8:	00010513          	mv	a0,sp
    800001fc:	3b00206f          	j	800025ac <handle_trap>

Disassembly of section .text:

0000000080002000 <memcpy>:
    80002000:	00c5e7b3          	or	a5,a1,a2
    80002004:	00f567b3          	or	a5,a0,a5
    80002008:	0077f793          	andi	a5,a5,7
    8000200c:	00c506b3          	add	a3,a0,a2
    80002010:	02078463          	beqz	a5,80002038 <memcpy+0x38>
    80002014:	00c58633          	add	a2,a1,a2
    80002018:	00050793          	mv	a5,a0
    8000201c:	02d57e63          	bgeu	a0,a3,80002058 <memcpy+0x58>
    80002020:	0005c703          	lbu	a4,0(a1)
    80002024:	00158593          	addi	a1,a1,1
    80002028:	00178793          	addi	a5,a5,1
    8000202c:	fee78fa3          	sb	a4,-1(a5)
    80002030:	feb618e3          	bne	a2,a1,80002020 <memcpy+0x20>
    80002034:	00008067          	ret
    80002038:	fed57ee3          	bgeu	a0,a3,80002034 <memcpy+0x34>
    8000203c:	00050793          	mv	a5,a0
    80002040:	0005b703          	ld	a4,0(a1)
    80002044:	00878793          	addi	a5,a5,8
    80002048:	00858593          	addi	a1,a1,8
    8000204c:	fee7bc23          	sd	a4,-8(a5)
    80002050:	fed7e8e3          	bltu	a5,a3,80002040 <memcpy+0x40>
    80002054:	00008067          	ret
    80002058:	00008067          	ret

000000008000205c <memset>:
    8000205c:	ff010113          	addi	sp,sp,-16
    80002060:	00c567b3          	or	a5,a0,a2
    80002064:	00813023          	sd	s0,0(sp)
    80002068:	00113423          	sd	ra,8(sp)
    8000206c:	0077f793          	andi	a5,a5,7
    80002070:	00050413          	mv	s0,a0
    80002074:	00c50733          	add	a4,a0,a2
    80002078:	02078263          	beqz	a5,8000209c <memset+0x40>
    8000207c:	00e57663          	bgeu	a0,a4,80002088 <memset+0x2c>
    80002080:	0ff5f593          	zext.b	a1,a1
    80002084:	fd9ff0ef          	jal	8000205c <memset>
    80002088:	00813083          	ld	ra,8(sp)
    8000208c:	00040513          	mv	a0,s0
    80002090:	00013403          	ld	s0,0(sp)
    80002094:	01010113          	addi	sp,sp,16
    80002098:	00008067          	ret
    8000209c:	010107b7          	lui	a5,0x1010
    800020a0:	10178793          	addi	a5,a5,257 # 1010101 <_start-0x7efefeff>
    800020a4:	01079793          	slli	a5,a5,0x10
    800020a8:	10178793          	addi	a5,a5,257
    800020ac:	01079793          	slli	a5,a5,0x10
    800020b0:	0ff5f593          	zext.b	a1,a1
    800020b4:	10178793          	addi	a5,a5,257
    800020b8:	02f585b3          	mul	a1,a1,a5
    800020bc:	fce576e3          	bgeu	a0,a4,80002088 <memset+0x2c>
    800020c0:	00050793          	mv	a5,a0
    800020c4:	00878793          	addi	a5,a5,8
    800020c8:	feb7bc23          	sd	a1,-8(a5)
    800020cc:	fee7ece3          	bltu	a5,a4,800020c4 <memset+0x68>
    800020d0:	00813083          	ld	ra,8(sp)
    800020d4:	00040513          	mv	a0,s0
    800020d8:	00013403          	ld	s0,0(sp)
    800020dc:	01010113          	addi	sp,sp,16
    800020e0:	00008067          	ret

00000000800020e4 <strlen>:
    800020e4:	00054783          	lbu	a5,0(a0)
    800020e8:	00078e63          	beqz	a5,80002104 <strlen+0x20>
    800020ec:	00050793          	mv	a5,a0
    800020f0:	0017c703          	lbu	a4,1(a5)
    800020f4:	00178793          	addi	a5,a5,1
    800020f8:	fe071ce3          	bnez	a4,800020f0 <strlen+0xc>
    800020fc:	40a78533          	sub	a0,a5,a0
    80002100:	00008067          	ret
    80002104:	00000513          	li	a0,0
    80002108:	00008067          	ret

000000008000210c <strcmp>:
    8000210c:	00054783          	lbu	a5,0(a0)
    80002110:	00158593          	addi	a1,a1,1
    80002114:	00150513          	addi	a0,a0,1
    80002118:	fff5c703          	lbu	a4,-1(a1)
    8000211c:	00078a63          	beqz	a5,80002130 <strcmp+0x24>
    80002120:	fee786e3          	beq	a5,a4,8000210c <strcmp>
    80002124:	0007851b          	sext.w	a0,a5
    80002128:	40e5053b          	subw	a0,a0,a4
    8000212c:	00008067          	ret
    80002130:	00000513          	li	a0,0
    80002134:	ff5ff06f          	j	80002128 <strcmp+0x1c>

0000000080002138 <memcmp>:
    80002138:	00b567b3          	or	a5,a0,a1
    8000213c:	0077f793          	andi	a5,a5,7
    80002140:	02079e63          	bnez	a5,8000217c <memcmp+0x44>
    80002144:	ff867813          	andi	a6,a2,-8
    80002148:	01050833          	add	a6,a0,a6
    8000214c:	03057863          	bgeu	a0,a6,8000217c <memcmp+0x44>
    80002150:	00050793          	mv	a5,a0
    80002154:	0100006f          	j	80002164 <memcmp+0x2c>
    80002158:	00878793          	addi	a5,a5,8
    8000215c:	00858593          	addi	a1,a1,8
    80002160:	0107f863          	bgeu	a5,a6,80002170 <memcmp+0x38>
    80002164:	0007b683          	ld	a3,0(a5)
    80002168:	0005b703          	ld	a4,0(a1)
    8000216c:	fee686e3          	beq	a3,a4,80002158 <memcmp+0x20>
    80002170:	40a78533          	sub	a0,a5,a0
    80002174:	40a60633          	sub	a2,a2,a0
    80002178:	00078513          	mv	a0,a5
    8000217c:	00c58633          	add	a2,a1,a2
    80002180:	0140006f          	j	80002194 <memcmp+0x5c>
    80002184:	0005c703          	lbu	a4,0(a1)
    80002188:	fff54783          	lbu	a5,-1(a0)
    8000218c:	00158593          	addi	a1,a1,1
    80002190:	00e79a63          	bne	a5,a4,800021a4 <memcmp+0x6c>
    80002194:	00150513          	addi	a0,a0,1
    80002198:	fec596e3          	bne	a1,a2,80002184 <memcmp+0x4c>
    8000219c:	00000513          	li	a0,0
    800021a0:	00008067          	ret
    800021a4:	40e7853b          	subw	a0,a5,a4
    800021a8:	00008067          	ret

00000000800021ac <strcpy>:
    800021ac:	00050793          	mv	a5,a0
    800021b0:	0005c703          	lbu	a4,0(a1)
    800021b4:	00178793          	addi	a5,a5,1
    800021b8:	00158593          	addi	a1,a1,1
    800021bc:	fee78fa3          	sb	a4,-1(a5)
    800021c0:	fe0718e3          	bnez	a4,800021b0 <strcpy+0x4>
    800021c4:	00008067          	ret

00000000800021c8 <atol>:
    800021c8:	00054703          	lbu	a4,0(a0)
    800021cc:	02000693          	li	a3,32
    800021d0:	00050793          	mv	a5,a0
    800021d4:	00d71863          	bne	a4,a3,800021e4 <atol+0x1c>
    800021d8:	0017c703          	lbu	a4,1(a5)
    800021dc:	00178793          	addi	a5,a5,1
    800021e0:	fed70ce3          	beq	a4,a3,800021d8 <atol+0x10>
    800021e4:	02d00693          	li	a3,45
    800021e8:	04d70e63          	beq	a4,a3,80002244 <atol+0x7c>
    800021ec:	02b00693          	li	a3,43
    800021f0:	04d70063          	beq	a4,a3,80002230 <atol+0x68>
    800021f4:	0007c683          	lbu	a3,0(a5)
    800021f8:	00000593          	li	a1,0
    800021fc:	04068c63          	beqz	a3,80002254 <atol+0x8c>
    80002200:	00000513          	li	a0,0
    80002204:	00178793          	addi	a5,a5,1
    80002208:	00251713          	slli	a4,a0,0x2
    8000220c:	fd06861b          	addiw	a2,a3,-48
    80002210:	0007c683          	lbu	a3,0(a5)
    80002214:	00a70733          	add	a4,a4,a0
    80002218:	00171713          	slli	a4,a4,0x1
    8000221c:	00e60533          	add	a0,a2,a4
    80002220:	fe0692e3          	bnez	a3,80002204 <atol+0x3c>
    80002224:	02058a63          	beqz	a1,80002258 <atol+0x90>
    80002228:	40a00533          	neg	a0,a0
    8000222c:	00008067          	ret
    80002230:	0017c683          	lbu	a3,1(a5)
    80002234:	00178793          	addi	a5,a5,1
    80002238:	00068e63          	beqz	a3,80002254 <atol+0x8c>
    8000223c:	00000593          	li	a1,0
    80002240:	fc1ff06f          	j	80002200 <atol+0x38>
    80002244:	0017c683          	lbu	a3,1(a5)
    80002248:	00100593          	li	a1,1
    8000224c:	00178793          	addi	a5,a5,1
    80002250:	fa0698e3          	bnez	a3,80002200 <atol+0x38>
    80002254:	00000513          	li	a0,0
    80002258:	00008067          	ret

000000008000225c <cputstring>:
    8000225c:	00054783          	lbu	a5,0(a0)
    80002260:	04078063          	beqz	a5,800022a0 <cputstring+0x44>
    80002264:	10100593          	li	a1,257
    80002268:	fffff717          	auipc	a4,0xfffff
    8000226c:	d9870713          	addi	a4,a4,-616 # 80001000 <tohost>
    80002270:	03059593          	slli	a1,a1,0x30
    80002274:	00073603          	ld	a2,0(a4)
    80002278:	00150513          	addi	a0,a0,1
    8000227c:	00b7e6b3          	or	a3,a5,a1
    80002280:	00060a63          	beqz	a2,80002294 <cputstring+0x38>
    80002284:	fffff797          	auipc	a5,0xfffff
    80002288:	da07be23          	sd	zero,-580(a5) # 80001040 <fromhost>
    8000228c:	00073783          	ld	a5,0(a4)
    80002290:	fe079ae3          	bnez	a5,80002284 <cputstring+0x28>
    80002294:	00d73023          	sd	a3,0(a4)
    80002298:	00054783          	lbu	a5,0(a0)
    8000229c:	fc079ce3          	bnez	a5,80002274 <cputstring+0x18>
    800022a0:	00008067          	ret

00000000800022a4 <terminate>:
    800022a4:	fffff717          	auipc	a4,0xfffff
    800022a8:	d5c70713          	addi	a4,a4,-676 # 80001000 <tohost>
    800022ac:	00073783          	ld	a5,0(a4)
    800022b0:	00078a63          	beqz	a5,800022c4 <terminate+0x20>
    800022b4:	fffff797          	auipc	a5,0xfffff
    800022b8:	d807b623          	sd	zero,-628(a5) # 80001040 <fromhost>
    800022bc:	00073783          	ld	a5,0(a4)
    800022c0:	fe079ae3          	bnez	a5,800022b4 <terminate+0x10>
    800022c4:	00a73023          	sd	a0,0(a4)
    800022c8:	0000006f          	j	800022c8 <terminate+0x24>

00000000800022cc <wtf>:
    800022cc:	ff010113          	addi	sp,sp,-16
    800022d0:	34900513          	li	a0,841
    800022d4:	00113423          	sd	ra,8(sp)
    800022d8:	fcdff0ef          	jal	800022a4 <terminate>

00000000800022dc <printhex>:
    800022dc:	fe010113          	addi	sp,sp,-32
    800022e0:	00810613          	addi	a2,sp,8
    800022e4:	01710713          	addi	a4,sp,23
    800022e8:	00900813          	li	a6,9
    800022ec:	0080006f          	j	800022f4 <printhex+0x18>
    800022f0:	00078713          	mv	a4,a5
    800022f4:	00f57693          	andi	a3,a0,15
    800022f8:	00068593          	mv	a1,a3
    800022fc:	05700793          	li	a5,87
    80002300:	00d86463          	bltu	a6,a3,80002308 <printhex+0x2c>
    80002304:	03000793          	li	a5,48
    80002308:	00b787bb          	addw	a5,a5,a1
    8000230c:	00f70023          	sb	a5,0(a4)
    80002310:	00455513          	srli	a0,a0,0x4
    80002314:	fff70793          	addi	a5,a4,-1
    80002318:	fce61ce3          	bne	a2,a4,800022f0 <printhex+0x14>
    8000231c:	00814783          	lbu	a5,8(sp)
    80002320:	00010c23          	sb	zero,24(sp)
    80002324:	04078263          	beqz	a5,80002368 <printhex+0x8c>
    80002328:	10100513          	li	a0,257
    8000232c:	00060693          	mv	a3,a2
    80002330:	fffff717          	auipc	a4,0xfffff
    80002334:	cd070713          	addi	a4,a4,-816 # 80001000 <tohost>
    80002338:	03051513          	slli	a0,a0,0x30
    8000233c:	00073583          	ld	a1,0(a4)
    80002340:	00168693          	addi	a3,a3,1
    80002344:	00a7e633          	or	a2,a5,a0
    80002348:	00058a63          	beqz	a1,8000235c <printhex+0x80>
    8000234c:	fffff797          	auipc	a5,0xfffff
    80002350:	ce07ba23          	sd	zero,-780(a5) # 80001040 <fromhost>
    80002354:	00073783          	ld	a5,0(a4)
    80002358:	fe079ae3          	bnez	a5,8000234c <printhex+0x70>
    8000235c:	0006c783          	lbu	a5,0(a3)
    80002360:	00c73023          	sd	a2,0(a4)
    80002364:	fc079ce3          	bnez	a5,8000233c <printhex+0x60>
    80002368:	02010113          	addi	sp,sp,32
    8000236c:	00008067          	ret

0000000080002370 <handle_fault>:
    80002370:	fb010113          	addi	sp,sp,-80
    80002374:	00100793          	li	a5,1
    80002378:	fffff737          	lui	a4,0xfffff
    8000237c:	00f12223          	sw	a5,4(sp)
    80002380:	04113423          	sd	ra,72(sp)
    80002384:	00013423          	sd	zero,8(sp)
    80002388:	00e506b3          	add	a3,a0,a4
    8000238c:	0003e7b7          	lui	a5,0x3e
    80002390:	04813023          	sd	s0,64(sp)
    80002394:	02913c23          	sd	s1,56(sp)
    80002398:	03213823          	sd	s2,48(sp)
    8000239c:	03313423          	sd	s3,40(sp)
    800023a0:	1af6f663          	bgeu	a3,a5,8000254c <handle_fault+0x1dc>
    800023a4:	00c55993          	srli	s3,a0,0xc
    800023a8:	60098493          	addi	s1,s3,1536
    800023ac:	00002917          	auipc	s2,0x2
    800023b0:	c5490913          	addi	s2,s2,-940 # 80004000 <pt>
    800023b4:	00349793          	slli	a5,s1,0x3
    800023b8:	00f907b3          	add	a5,s2,a5
    800023bc:	0007b783          	ld	a5,0(a5) # 3e000 <_start-0x7ffc2000>
    800023c0:	00e57433          	and	s0,a0,a4
    800023c4:	10079a63          	bnez	a5,800024d8 <handle_fault+0x168>
    800023c8:	00006717          	auipc	a4,0x6
    800023cc:	c4870713          	addi	a4,a4,-952 # 80008010 <freelist_head>
    800023d0:	03413023          	sd	s4,32(sp)
    800023d4:	00073a03          	ld	s4,0(a4)
    800023d8:	01513c23          	sd	s5,24(sp)
    800023dc:	1a0a0463          	beqz	s4,80002584 <handle_fault+0x214>
    800023e0:	008a3783          	ld	a5,8(s4)
    800023e4:	00006697          	auipc	a3,0x6
    800023e8:	c246b683          	ld	a3,-988(a3) # 80008008 <freelist_tail>
    800023ec:	00f73023          	sd	a5,0(a4)
    800023f0:	14d78863          	beq	a5,a3,80002540 <handle_fault+0x1d0>
    800023f4:	00410613          	addi	a2,sp,4
    800023f8:	00810593          	addi	a1,sp,8
    800023fc:	00040513          	mv	a0,s0
    80002400:	000a3a83          	ld	s5,0(s4)
    80002404:	698000ef          	jal	80002a9c <pf_filter>
    80002408:	10051c63          	bnez	a0,80002520 <handle_fault+0x1b0>
    8000240c:	00cad693          	srli	a3,s5,0xc
    80002410:	00a69693          	slli	a3,a3,0xa
    80002414:	01f6e693          	ori	a3,a3,31
    80002418:	00349793          	slli	a5,s1,0x3
    8000241c:	00f907b3          	add	a5,s2,a5
    80002420:	0c06e713          	ori	a4,a3,192
    80002424:	00e7b023          	sd	a4,0(a5)
    80002428:	12040073          	sfence.vma	s0
    8000242c:	00001797          	auipc	a5,0x1
    80002430:	bd478793          	addi	a5,a5,-1068 # 80003000 <user_mapping>
    80002434:	00499993          	slli	s3,s3,0x4
    80002438:	013787b3          	add	a5,a5,s3
    8000243c:	0007b703          	ld	a4,0(a5)
    80002440:	14071c63          	bnez	a4,80002598 <handle_fault+0x228>
    80002444:	000a3703          	ld	a4,0(s4)
    80002448:	000405b7          	lui	a1,0x40
    8000244c:	00e7b023          	sd	a4,0(a5)
    80002450:	008a3703          	ld	a4,8(s4)
    80002454:	00e7b423          	sd	a4,8(a5)
    80002458:	1005a5f3          	csrrs	a1,sstatus,a1
    8000245c:	ffe007b7          	lui	a5,0xffe00
    80002460:	00f407b3          	add	a5,s0,a5
    80002464:	00001637          	lui	a2,0x1
    80002468:	00040713          	mv	a4,s0
    8000246c:	00c78633          	add	a2,a5,a2
    80002470:	0007b303          	ld	t1,0(a5) # ffffffffffe00000 <freelist_head+0xffffffff7fdf7ff0>
    80002474:	0087b883          	ld	a7,8(a5)
    80002478:	0107b803          	ld	a6,16(a5)
    8000247c:	0187b503          	ld	a0,24(a5)
    80002480:	00673023          	sd	t1,0(a4)
    80002484:	01173423          	sd	a7,8(a4)
    80002488:	01073823          	sd	a6,16(a4)
    8000248c:	00a73c23          	sd	a0,24(a4)
    80002490:	02078793          	addi	a5,a5,32
    80002494:	02070713          	addi	a4,a4,32
    80002498:	fcc79ce3          	bne	a5,a2,80002470 <handle_fault+0x100>
    8000249c:	10059073          	csrw	sstatus,a1
    800024a0:	00349793          	slli	a5,s1,0x3
    800024a4:	00f904b3          	add	s1,s2,a5
    800024a8:	00d4b023          	sd	a3,0(s1)
    800024ac:	12040073          	sfence.vma	s0
    800024b0:	0000100f          	fence.i
    800024b4:	04013403          	ld	s0,64(sp)
    800024b8:	04813083          	ld	ra,72(sp)
    800024bc:	02013a03          	ld	s4,32(sp)
    800024c0:	01813a83          	ld	s5,24(sp)
    800024c4:	03813483          	ld	s1,56(sp)
    800024c8:	03013903          	ld	s2,48(sp)
    800024cc:	02813983          	ld	s3,40(sp)
    800024d0:	05010113          	addi	sp,sp,80
    800024d4:	00008067          	ret
    800024d8:	0407f713          	andi	a4,a5,64
    800024dc:	04070e63          	beqz	a4,80002538 <handle_fault+0x1c8>
    800024e0:	0807f713          	andi	a4,a5,128
    800024e4:	08071263          	bnez	a4,80002568 <handle_fault+0x1f8>
    800024e8:	00f00713          	li	a4,15
    800024ec:	0807e793          	ori	a5,a5,128
    800024f0:	06e59c63          	bne	a1,a4,80002568 <handle_fault+0x1f8>
    800024f4:	00349493          	slli	s1,s1,0x3
    800024f8:	009904b3          	add	s1,s2,s1
    800024fc:	00f4b023          	sd	a5,0(s1)
    80002500:	12040073          	sfence.vma	s0
    80002504:	04013403          	ld	s0,64(sp)
    80002508:	04813083          	ld	ra,72(sp)
    8000250c:	03813483          	ld	s1,56(sp)
    80002510:	03013903          	ld	s2,48(sp)
    80002514:	02813983          	ld	s3,40(sp)
    80002518:	05010113          	addi	sp,sp,80
    8000251c:	00008067          	ret
    80002520:	000a3683          	ld	a3,0(s4)
    80002524:	00813783          	ld	a5,8(sp)
    80002528:	00c6d693          	srli	a3,a3,0xc
    8000252c:	00a69693          	slli	a3,a3,0xa
    80002530:	00f6e6b3          	or	a3,a3,a5
    80002534:	ee5ff06f          	j	80002418 <handle_fault+0xa8>
    80002538:	0407e793          	ori	a5,a5,64
    8000253c:	fb9ff06f          	j	800024f4 <handle_fault+0x184>
    80002540:	00006797          	auipc	a5,0x6
    80002544:	ac07b423          	sd	zero,-1336(a5) # 80008008 <freelist_tail>
    80002548:	eadff06f          	j	800023f4 <handle_fault+0x84>
    8000254c:	00000517          	auipc	a0,0x0
    80002550:	60c50513          	addi	a0,a0,1548 # 80002b58 <pass+0xc>
    80002554:	03413023          	sd	s4,32(sp)
    80002558:	01513c23          	sd	s5,24(sp)
    8000255c:	d01ff0ef          	jal	8000225c <cputstring>
    80002560:	00300513          	li	a0,3
    80002564:	d41ff0ef          	jal	800022a4 <terminate>
    80002568:	00000517          	auipc	a0,0x0
    8000256c:	63850513          	addi	a0,a0,1592 # 80002ba0 <pass+0x54>
    80002570:	03413023          	sd	s4,32(sp)
    80002574:	01513c23          	sd	s5,24(sp)
    80002578:	ce5ff0ef          	jal	8000225c <cputstring>
    8000257c:	00300513          	li	a0,3
    80002580:	d25ff0ef          	jal	800022a4 <terminate>
    80002584:	00000517          	auipc	a0,0x0
    80002588:	66450513          	addi	a0,a0,1636 # 80002be8 <pass+0x9c>
    8000258c:	cd1ff0ef          	jal	8000225c <cputstring>
    80002590:	00300513          	li	a0,3
    80002594:	d11ff0ef          	jal	800022a4 <terminate>
    80002598:	00000517          	auipc	a0,0x0
    8000259c:	66850513          	addi	a0,a0,1640 # 80002c00 <pass+0xb4>
    800025a0:	cbdff0ef          	jal	8000225c <cputstring>
    800025a4:	00300513          	li	a0,3
    800025a8:	cfdff0ef          	jal	800022a4 <terminate>

00000000800025ac <handle_trap>:
    800025ac:	f8010113          	addi	sp,sp,-128
    800025b0:	06813823          	sd	s0,112(sp)
    800025b4:	06113c23          	sd	ra,120(sp)
    800025b8:	00050413          	mv	s0,a0
    800025bc:	4d8000ef          	jal	80002a94 <trap_filter>
    800025c0:	0e051263          	bnez	a0,800026a4 <handle_trap+0xf8>
    800025c4:	11843583          	ld	a1,280(s0)
    800025c8:	00800793          	li	a5,8
    800025cc:	12f58663          	beq	a1,a5,800026f8 <handle_trap+0x14c>
    800025d0:	00200793          	li	a5,2
    800025d4:	02f58a63          	beq	a1,a5,80002608 <handle_trap+0x5c>
    800025d8:	ff458793          	addi	a5,a1,-12 # 3fff4 <_start-0x7ffc000c>
    800025dc:	00100713          	li	a4,1
    800025e0:	00f77663          	bgeu	a4,a5,800025ec <handle_trap+0x40>
    800025e4:	00f00793          	li	a5,15
    800025e8:	24f59863          	bne	a1,a5,80002838 <handle_trap+0x28c>
    800025ec:	11043503          	ld	a0,272(s0)
    800025f0:	d81ff0ef          	jal	80002370 <handle_fault>
    800025f4:	00040513          	mv	a0,s0
    800025f8:	07013403          	ld	s0,112(sp)
    800025fc:	07813083          	ld	ra,120(sp)
    80002600:	08010113          	addi	sp,sp,128
    80002604:	ac9fd06f          	j	800000cc <pop_tf>
    80002608:	10843703          	ld	a4,264(s0)
    8000260c:	00377793          	andi	a5,a4,3
    80002610:	0a079463          	bnez	a5,800026b8 <handle_trap+0x10c>
    80002614:	00072703          	lw	a4,0(a4)
    80002618:	008007ef          	jal	a5,80002620 <handle_trap+0x74>
    8000261c:	00301073          	fscsr	zero
    80002620:	0007a783          	lw	a5,0(a5)
    80002624:	06913423          	sd	s1,104(sp)
    80002628:	07213023          	sd	s2,96(sp)
    8000262c:	05313c23          	sd	s3,88(sp)
    80002630:	05413823          	sd	s4,80(sp)
    80002634:	05513423          	sd	s5,72(sp)
    80002638:	05613023          	sd	s6,64(sp)
    8000263c:	03713c23          	sd	s7,56(sp)
    80002640:	03813823          	sd	s8,48(sp)
    80002644:	03913423          	sd	s9,40(sp)
    80002648:	03a13023          	sd	s10,32(sp)
    8000264c:	01b13c23          	sd	s11,24(sp)
    80002650:	06f70063          	beq	a4,a5,800026b0 <handle_trap+0x104>
    80002654:	10100513          	li	a0,257
    80002658:	04100793          	li	a5,65
    8000265c:	00000697          	auipc	a3,0x0
    80002660:	5e468693          	addi	a3,a3,1508 # 80002c40 <pass+0xf4>
    80002664:	fffff717          	auipc	a4,0xfffff
    80002668:	99c70713          	addi	a4,a4,-1636 # 80001000 <tohost>
    8000266c:	03051513          	slli	a0,a0,0x30
    80002670:	00073583          	ld	a1,0(a4)
    80002674:	00168693          	addi	a3,a3,1
    80002678:	00a7e633          	or	a2,a5,a0
    8000267c:	00058a63          	beqz	a1,80002690 <handle_trap+0xe4>
    80002680:	fffff797          	auipc	a5,0xfffff
    80002684:	9c07b023          	sd	zero,-1600(a5) # 80001040 <fromhost>
    80002688:	00073783          	ld	a5,0(a4)
    8000268c:	fe079ae3          	bnez	a5,80002680 <handle_trap+0xd4>
    80002690:	0006c783          	lbu	a5,0(a3)
    80002694:	00c73023          	sd	a2,0(a4)
    80002698:	fc079ce3          	bnez	a5,80002670 <handle_trap+0xc4>
    8000269c:	00300513          	li	a0,3
    800026a0:	c05ff0ef          	jal	800022a4 <terminate>
    800026a4:	00040513          	mv	a0,s0
    800026a8:	a25fd0ef          	jal	800000cc <pop_tf>
    800026ac:	f19ff06f          	j	800025c4 <handle_trap+0x18>
    800026b0:	00100513          	li	a0,1
    800026b4:	bf1ff0ef          	jal	800022a4 <terminate>
    800026b8:	00000517          	auipc	a0,0x0
    800026bc:	62850513          	addi	a0,a0,1576 # 80002ce0 <pass+0x194>
    800026c0:	06913423          	sd	s1,104(sp)
    800026c4:	07213023          	sd	s2,96(sp)
    800026c8:	05313c23          	sd	s3,88(sp)
    800026cc:	05413823          	sd	s4,80(sp)
    800026d0:	05513423          	sd	s5,72(sp)
    800026d4:	05613023          	sd	s6,64(sp)
    800026d8:	03713c23          	sd	s7,56(sp)
    800026dc:	03813823          	sd	s8,48(sp)
    800026e0:	03913423          	sd	s9,40(sp)
    800026e4:	03a13023          	sd	s10,32(sp)
    800026e8:	01b13c23          	sd	s11,24(sp)
    800026ec:	b71ff0ef          	jal	8000225c <cputstring>
    800026f0:	00300513          	li	a0,3
    800026f4:	bb1ff0ef          	jal	800022a4 <terminate>
    800026f8:	05042783          	lw	a5,80(s0)
    800026fc:	06913423          	sd	s1,104(sp)
    80002700:	05413823          	sd	s4,80(sp)
    80002704:	05513423          	sd	s5,72(sp)
    80002708:	05613023          	sd	s6,64(sp)
    8000270c:	03713c23          	sd	s7,56(sp)
    80002710:	03813823          	sd	s8,48(sp)
    80002714:	03913423          	sd	s9,40(sp)
    80002718:	03a13023          	sd	s10,32(sp)
    8000271c:	07213023          	sd	s2,96(sp)
    80002720:	05313c23          	sd	s3,88(sp)
    80002724:	01b13c23          	sd	s11,24(sp)
    80002728:	00f13423          	sd	a5,8(sp)
    8000272c:	000014b7          	lui	s1,0x1
    80002730:	00001a97          	auipc	s5,0x1
    80002734:	8d0a8a93          	addi	s5,s5,-1840 # 80003000 <user_mapping>
    80002738:	00002d17          	auipc	s10,0x2
    8000273c:	8c8d0d13          	addi	s10,s10,-1848 # 80004000 <pt>
    80002740:	00040cb7          	lui	s9,0x40
    80002744:	ffe00c37          	lui	s8,0xffe00
    80002748:	00006a17          	auipc	s4,0x6
    8000274c:	8c0a0a13          	addi	s4,s4,-1856 # 80008008 <freelist_tail>
    80002750:	00006b97          	auipc	s7,0x6
    80002754:	8c0b8b93          	addi	s7,s7,-1856 # 80008010 <freelist_head>
    80002758:	0003fb37          	lui	s6,0x3f
    8000275c:	00c4d793          	srli	a5,s1,0xc
    80002760:	00479913          	slli	s2,a5,0x4
    80002764:	012a8733          	add	a4,s5,s2
    80002768:	00073703          	ld	a4,0(a4)
    8000276c:	08070c63          	beqz	a4,80002804 <handle_trap+0x258>
    80002770:	60078793          	addi	a5,a5,1536
    80002774:	00379793          	slli	a5,a5,0x3
    80002778:	00fd07b3          	add	a5,s10,a5
    8000277c:	0007b983          	ld	s3,0(a5)
    80002780:	0409f793          	andi	a5,s3,64
    80002784:	0a078063          	beqz	a5,80002824 <handle_trap+0x278>
    80002788:	100cadf3          	csrrs	s11,sstatus,s9
    8000278c:	01848433          	add	s0,s1,s8
    80002790:	00001637          	lui	a2,0x1
    80002794:	00040593          	mv	a1,s0
    80002798:	00048513          	mv	a0,s1
    8000279c:	99dff0ef          	jal	80002138 <memcmp>
    800027a0:	04050463          	beqz	a0,800027e8 <handle_trap+0x23c>
    800027a4:	0809f993          	andi	s3,s3,128
    800027a8:	0c098663          	beqz	s3,80002874 <handle_trap+0x2c8>
    800027ac:	000016b7          	lui	a3,0x1
    800027b0:	00048713          	mv	a4,s1
    800027b4:	00040793          	mv	a5,s0
    800027b8:	00d486b3          	add	a3,s1,a3
    800027bc:	00073803          	ld	a6,0(a4)
    800027c0:	00873503          	ld	a0,8(a4)
    800027c4:	01073583          	ld	a1,16(a4)
    800027c8:	01873603          	ld	a2,24(a4)
    800027cc:	0107b023          	sd	a6,0(a5)
    800027d0:	00a7b423          	sd	a0,8(a5)
    800027d4:	00b7b823          	sd	a1,16(a5)
    800027d8:	00c7bc23          	sd	a2,24(a5)
    800027dc:	02070713          	addi	a4,a4,32
    800027e0:	02078793          	addi	a5,a5,32
    800027e4:	fcd71ce3          	bne	a4,a3,800027bc <handle_trap+0x210>
    800027e8:	012a87b3          	add	a5,s5,s2
    800027ec:	100d9073          	csrw	sstatus,s11
    800027f0:	000a3703          	ld	a4,0(s4)
    800027f4:	0007b023          	sd	zero,0(a5)
    800027f8:	02070063          	beqz	a4,80002818 <handle_trap+0x26c>
    800027fc:	00f73423          	sd	a5,8(a4)
    80002800:	00fa3023          	sd	a5,0(s4)
    80002804:	000017b7          	lui	a5,0x1
    80002808:	00f484b3          	add	s1,s1,a5
    8000280c:	f56498e3          	bne	s1,s6,8000275c <handle_trap+0x1b0>
    80002810:	00813503          	ld	a0,8(sp)
    80002814:	a91ff0ef          	jal	800022a4 <terminate>
    80002818:	00fa3023          	sd	a5,0(s4)
    8000281c:	00fbb023          	sd	a5,0(s7)
    80002820:	fe5ff06f          	j	80002804 <handle_trap+0x258>
    80002824:	00000517          	auipc	a0,0x0
    80002828:	44c50513          	addi	a0,a0,1100 # 80002c70 <pass+0x124>
    8000282c:	a31ff0ef          	jal	8000225c <cputstring>
    80002830:	00300513          	li	a0,3
    80002834:	a71ff0ef          	jal	800022a4 <terminate>
    80002838:	00000517          	auipc	a0,0x0
    8000283c:	4d050513          	addi	a0,a0,1232 # 80002d08 <pass+0x1bc>
    80002840:	06913423          	sd	s1,104(sp)
    80002844:	07213023          	sd	s2,96(sp)
    80002848:	05313c23          	sd	s3,88(sp)
    8000284c:	05413823          	sd	s4,80(sp)
    80002850:	05513423          	sd	s5,72(sp)
    80002854:	05613023          	sd	s6,64(sp)
    80002858:	03713c23          	sd	s7,56(sp)
    8000285c:	03813823          	sd	s8,48(sp)
    80002860:	03913423          	sd	s9,40(sp)
    80002864:	03a13023          	sd	s10,32(sp)
    80002868:	01b13c23          	sd	s11,24(sp)
    8000286c:	9f1ff0ef          	jal	8000225c <cputstring>
    80002870:	e2dff06f          	j	8000269c <handle_trap+0xf0>
    80002874:	00000517          	auipc	a0,0x0
    80002878:	43450513          	addi	a0,a0,1076 # 80002ca8 <pass+0x15c>
    8000287c:	9e1ff0ef          	jal	8000225c <cputstring>
    80002880:	00300513          	li	a0,3
    80002884:	a21ff0ef          	jal	800022a4 <terminate>

0000000080002888 <vm_boot>:
    80002888:	f14027f3          	csrr	a5,mhartid
    8000288c:	18079e63          	bnez	a5,80002a28 <vm_boot+0x1a0>
    80002890:	ed010113          	addi	sp,sp,-304
    80002894:	12813023          	sd	s0,288(sp)
    80002898:	00004897          	auipc	a7,0x4
    8000289c:	76888893          	addi	a7,a7,1896 # 80007000 <pt+0x3000>
    800028a0:	00050413          	mv	s0,a0
    800028a4:	00003797          	auipc	a5,0x3
    800028a8:	75c78793          	addi	a5,a5,1884 # 80006000 <pt+0x2000>
    800028ac:	00002517          	auipc	a0,0x2
    800028b0:	75450513          	addi	a0,a0,1876 # 80005000 <pt+0x1000>
    800028b4:	00c55693          	srli	a3,a0,0xc
    800028b8:	00c8d713          	srli	a4,a7,0xc
    800028bc:	00c7d793          	srli	a5,a5,0xc
    800028c0:	00001317          	auipc	t1,0x1
    800028c4:	74030313          	addi	t1,t1,1856 # 80004000 <pt>
    800028c8:	fff00613          	li	a2,-1
    800028cc:	00a69693          	slli	a3,a3,0xa
    800028d0:	00a79793          	slli	a5,a5,0xa
    800028d4:	00a71713          	slli	a4,a4,0xa
    800028d8:	20000837          	lui	a6,0x20000
    800028dc:	12113423          	sd	ra,296(sp)
    800028e0:	0016e693          	ori	a3,a3,1
    800028e4:	0017e793          	ori	a5,a5,1
    800028e8:	0cf80813          	addi	a6,a6,207 # 200000cf <_start-0x5fffff31>
    800028ec:	00176713          	ori	a4,a4,1
    800028f0:	00c35593          	srli	a1,t1,0xc
    800028f4:	03f61e13          	slli	t3,a2,0x3f
    800028f8:	fef53c23          	sd	a5,-8(a0)
    800028fc:	00d33023          	sd	a3,0(t1)
    80002900:	ff08bc23          	sd	a6,-8(a7)
    80002904:	00e53023          	sd	a4,0(a0)
    80002908:	01c5e7b3          	or	a5,a1,t3
    8000290c:	18079073          	csrw	satp,a5
    80002910:	18002773          	csrr	a4,satp
    80002914:	16e79463          	bne	a5,a4,80002a7c <vm_boot+0x1f4>
    80002918:	00b65613          	srli	a2,a2,0xb
    8000291c:	01f00793          	li	a5,31
    80002920:	00000297          	auipc	t0,0x0
    80002924:	01428293          	addi	t0,t0,20 # 80002934 <vm_boot+0xac>
    80002928:	305292f3          	csrrw	t0,mtvec,t0
    8000292c:	3b061073          	csrw	pmpaddr0,a2
    80002930:	3a079073          	csrw	pmpcfg0,a5
    80002934:	30529073          	csrw	mtvec,t0
    80002938:	bff00693          	li	a3,-1025
    8000293c:	01569693          	slli	a3,a3,0x15
    80002940:	ffffe797          	auipc	a5,0xffffe
    80002944:	81478793          	addi	a5,a5,-2028 # 80000154 <trap_entry>
    80002948:	00d787b3          	add	a5,a5,a3
    8000294c:	10579073          	csrw	stvec,a5
    80002950:	340027f3          	csrr	a5,mscratch
    80002954:	00d787b3          	add	a5,a5,a3
    80002958:	14079073          	csrw	sscratch,a5
    8000295c:	0000b7b7          	lui	a5,0xb
    80002960:	1007879b          	addiw	a5,a5,256 # b100 <_start-0x7fff4f00>
    80002964:	30279073          	csrw	medeleg,a5
    80002968:	0001e7b7          	lui	a5,0x1e
    8000296c:	6007879b          	addiw	a5,a5,1536 # 1e600 <_start-0x7ffe1a00>
    80002970:	30079073          	csrw	mstatus,a5
    80002974:	30405073          	csrwi	mie,0
    80002978:	00001717          	auipc	a4,0x1
    8000297c:	a7870713          	addi	a4,a4,-1416 # 800033f0 <freelist_nodes>
    80002980:	3e068793          	addi	a5,a3,992 # 13e0 <_start-0x7fffec20>
    80002984:	bff00813          	li	a6,-1025
    80002988:	00d706b3          	add	a3,a4,a3
    8000298c:	00f707b3          	add	a5,a4,a5
    80002990:	000808b7          	lui	a7,0x80
    80002994:	01581813          	slli	a6,a6,0x15
    80002998:	00005617          	auipc	a2,0x5
    8000299c:	66d63c23          	sd	a3,1656(a2) # 80008010 <freelist_head>
    800029a0:	00001317          	auipc	t1,0x1
    800029a4:	e4030313          	addi	t1,t1,-448 # 800037e0 <freelist_nodes+0x3f0>
    800029a8:	00005697          	auipc	a3,0x5
    800029ac:	66f6b023          	sd	a5,1632(a3) # 80008008 <freelist_tail>
    800029b0:	03f88893          	addi	a7,a7,63 # 8003f <_start-0x7ff7ffc1>
    800029b4:	00700793          	li	a5,7
    800029b8:	01080813          	addi	a6,a6,16
    800029bc:	0017d613          	srli	a2,a5,0x1
    800029c0:	011786b3          	add	a3,a5,a7
    800029c4:	00f647b3          	xor	a5,a2,a5
    800029c8:	010705b3          	add	a1,a4,a6
    800029cc:	00c69693          	slli	a3,a3,0xc
    800029d0:	00579793          	slli	a5,a5,0x5
    800029d4:	00d73023          	sd	a3,0(a4)
    800029d8:	00b73423          	sd	a1,8(a4)
    800029dc:	0207f793          	andi	a5,a5,32
    800029e0:	01070713          	addi	a4,a4,16
    800029e4:	00f667b3          	or	a5,a2,a5
    800029e8:	fce31ae3          	bne	t1,a4,800029bc <vm_boot+0x134>
    800029ec:	12000613          	li	a2,288
    800029f0:	00000593          	li	a1,0
    800029f4:	00010513          	mv	a0,sp
    800029f8:	00001797          	auipc	a5,0x1
    800029fc:	de07b023          	sd	zero,-544(a5) # 800037d8 <freelist_nodes+0x3e8>
    80002a00:	e5cff0ef          	jal	8000205c <memset>
    80002a04:	800007b7          	lui	a5,0x80000
    80002a08:	00f40433          	add	s0,s0,a5
    80002a0c:	00010513          	mv	a0,sp
    80002a10:	10813423          	sd	s0,264(sp)
    80002a14:	eb8fd0ef          	jal	800000cc <pop_tf>
    80002a18:	12813083          	ld	ra,296(sp)
    80002a1c:	12013403          	ld	s0,288(sp)
    80002a20:	13010113          	addi	sp,sp,304
    80002a24:	00008067          	ret
    80002a28:	0d8487b7          	lui	a5,0xd848
    80002a2c:	000805b7          	lui	a1,0x80
    80002a30:	00100613          	li	a2,1
    80002a34:	00100693          	li	a3,1
    80002a38:	c5e78793          	addi	a5,a5,-930 # d847c5e <_start-0x727b83a2>
    80002a3c:	ffc58593          	addi	a1,a1,-4 # 7fffc <_start-0x7ff80004>
    80002a40:	01f61613          	slli	a2,a2,0x1f
    80002a44:	03e69693          	slli	a3,a3,0x3e
    80002a48:	01c0006f          	j	80002a64 <vm_boot+0x1dc>
    80002a4c:	0007202f          	amoadd.w	zero,zero,(a4)
    80002a50:	0017d713          	srli	a4,a5,0x1
    80002a54:	00e7c7b3          	xor	a5,a5,a4
    80002a58:	03e79793          	slli	a5,a5,0x3e
    80002a5c:	00d7f7b3          	and	a5,a5,a3
    80002a60:	00e7e7b3          	or	a5,a5,a4
    80002a64:	00b7f733          	and	a4,a5,a1
    80002a68:	0017f513          	andi	a0,a5,1
    80002a6c:	00c70733          	add	a4,a4,a2
    80002a70:	fc051ee3          	bnez	a0,80002a4c <vm_boot+0x1c4>
    80002a74:	00072003          	lw	zero,0(a4)
    80002a78:	fd9ff06f          	j	80002a50 <vm_boot+0x1c8>
    80002a7c:	00000517          	auipc	a0,0x0
    80002a80:	2bc50513          	addi	a0,a0,700 # 80002d38 <pass+0x1ec>
    80002a84:	fd8ff0ef          	jal	8000225c <cputstring>
    80002a88:	00300513          	li	a0,3
    80002a8c:	819ff0ef          	jal	800022a4 <terminate>

0000000080002a90 <extra_boot>:
    80002a90:	00008067          	ret

0000000080002a94 <trap_filter>:
    80002a94:	00000513          	li	a0,0
    80002a98:	00008067          	ret

0000000080002a9c <pf_filter>:
    80002a9c:	00000513          	li	a0,0
    80002aa0:	00008067          	ret

0000000080002aa4 <userstart>:
    80002aa4:	00200193          	li	gp,2
    80002aa8:	80000537          	lui	a0,0x80000
    80002aac:	80000593          	li	a1,-2048
    80002ab0:	00005697          	auipc	a3,0x5
    80002ab4:	55068693          	addi	a3,a3,1360 # 80008000 <amo_operand>
    80002ab8:	00a6a023          	sw	a0,0(a3)
    80002abc:	e0b6a72f          	amomaxu.w	a4,a1,(a3)
    80002ac0:	800003b7          	lui	t2,0x80000
    80002ac4:	06771c63          	bne	a4,t2,80002b3c <fail>

0000000080002ac8 <test_3>:
    80002ac8:	00300193          	li	gp,3
    80002acc:	0006a783          	lw	a5,0(a3)
    80002ad0:	80000393          	li	t2,-2048
    80002ad4:	06779463          	bne	a5,t2,80002b3c <fail>

0000000080002ad8 <test_4>:
    80002ad8:	00400193          	li	gp,4
    80002adc:	fff00593          	li	a1,-1
    80002ae0:	0006a023          	sw	zero,0(a3)
    80002ae4:	e0b6a72f          	amomaxu.w	a4,a1,(a3)
    80002ae8:	00000393          	li	t2,0
    80002aec:	04771863          	bne	a4,t2,80002b3c <fail>

0000000080002af0 <test_5>:
    80002af0:	00500193          	li	gp,5
    80002af4:	0006a783          	lw	a5,0(a3)
    80002af8:	fff00393          	li	t2,-1
    80002afc:	04779063          	bne	a5,t2,80002b3c <fail>

0000000080002b00 <test_6>:
    80002b00:	00600193          	li	gp,6
    80002b04:	00100513          	li	a0,1
    80002b08:	fff0059b          	addiw	a1,zero,-1
    80002b0c:	03f59593          	slli	a1,a1,0x3f
    80002b10:	00005697          	auipc	a3,0x5
    80002b14:	4f068693          	addi	a3,a3,1264 # 80008000 <amo_operand>
    80002b18:	00a6a023          	sw	a0,0(a3)
    80002b1c:	e0b6a72f          	amomaxu.w	a4,a1,(a3)
    80002b20:	00100393          	li	t2,1
    80002b24:	00771c63          	bne	a4,t2,80002b3c <fail>

0000000080002b28 <test_7>:
    80002b28:	00700193          	li	gp,7
    80002b2c:	0006a783          	lw	a5,0(a3)
    80002b30:	00100393          	li	t2,1
    80002b34:	00779463          	bne	a5,t2,80002b3c <fail>
    80002b38:	00301a63          	bne	zero,gp,80002b4c <pass>

0000000080002b3c <fail>:
    80002b3c:	00119513          	slli	a0,gp,0x1
    80002b40:	00050063          	beqz	a0,80002b40 <fail+0x4>
    80002b44:	00156513          	ori	a0,a0,1
    80002b48:	00000073          	ecall

0000000080002b4c <pass>:
    80002b4c:	00100513          	li	a0,1
    80002b50:	00000073          	ecall
    80002b54:	c0001073          	unimp
