
rv64ui-p-sh:     file format elf64-littleriscv


Disassembly of section .text.init:

0000000080000000 <_start>:
    80000000:	0500006f          	j	80000050 <reset_vector>

0000000080000004 <trap_vector>:
    80000004:	34202f73          	csrr	t5,mcause
    80000008:	00800f93          	li	t6,8
    8000000c:	03ff0863          	beq	t5,t6,8000003c <write_tohost>
    80000010:	00900f93          	li	t6,9
    80000014:	03ff0463          	beq	t5,t6,8000003c <write_tohost>
    80000018:	00b00f93          	li	t6,11
    8000001c:	03ff0063          	beq	t5,t6,8000003c <write_tohost>
    80000020:	00000f13          	li	t5,0
    80000024:	000f0463          	beqz	t5,8000002c <trap_vector+0x28>
    80000028:	000f0067          	jr	t5
    8000002c:	34202f73          	csrr	t5,mcause
    80000030:	000f5463          	bgez	t5,80000038 <handle_exception>
    80000034:	0040006f          	j	80000038 <handle_exception>

0000000080000038 <handle_exception>:
    80000038:	5391e193          	ori	gp,gp,1337

000000008000003c <write_tohost>:
    8000003c:	00001f17          	auipc	t5,0x1
    80000040:	fc3f2223          	sw	gp,-60(t5) # 80001000 <tohost>
    80000044:	00001f17          	auipc	t5,0x1
    80000048:	fc0f2023          	sw	zero,-64(t5) # 80001004 <tohost+0x4>
    8000004c:	ff1ff06f          	j	8000003c <write_tohost>

0000000080000050 <reset_vector>:
    80000050:	00000093          	li	ra,0
    80000054:	00000113          	li	sp,0
    80000058:	00000193          	li	gp,0
    8000005c:	00000213          	li	tp,0
    80000060:	00000293          	li	t0,0
    80000064:	00000313          	li	t1,0
    80000068:	00000393          	li	t2,0
    8000006c:	00000413          	li	s0,0
    80000070:	00000493          	li	s1,0
    80000074:	00000513          	li	a0,0
    80000078:	00000593          	li	a1,0
    8000007c:	00000613          	li	a2,0
    80000080:	00000693          	li	a3,0
    80000084:	00000713          	li	a4,0
    80000088:	00000793          	li	a5,0
    8000008c:	00000813          	li	a6,0
    80000090:	00000893          	li	a7,0
    80000094:	00000913          	li	s2,0
    80000098:	00000993          	li	s3,0
    8000009c:	00000a13          	li	s4,0
    800000a0:	00000a93          	li	s5,0
    800000a4:	00000b13          	li	s6,0
    800000a8:	00000b93          	li	s7,0
    800000ac:	00000c13          	li	s8,0
    800000b0:	00000c93          	li	s9,0
    800000b4:	00000d13          	li	s10,0
    800000b8:	00000d93          	li	s11,0
    800000bc:	00000e13          	li	t3,0
    800000c0:	00000e93          	li	t4,0
    800000c4:	00000f13          	li	t5,0
    800000c8:	00000f93          	li	t6,0
    800000cc:	f1402573          	csrr	a0,mhartid
    800000d0:	00051063          	bnez	a0,800000d0 <reset_vector+0x80>
    800000d4:	00000297          	auipc	t0,0x0
    800000d8:	01028293          	addi	t0,t0,16 # 800000e4 <reset_vector+0x94>
    800000dc:	30529073          	csrw	mtvec,t0
    800000e0:	74445073          	csrwi	0x744,8
    800000e4:	00000297          	auipc	t0,0x0
    800000e8:	01028293          	addi	t0,t0,16 # 800000f4 <reset_vector+0xa4>
    800000ec:	30529073          	csrw	mtvec,t0
    800000f0:	18005073          	csrwi	satp,0
    800000f4:	00000297          	auipc	t0,0x0
    800000f8:	02428293          	addi	t0,t0,36 # 80000118 <reset_vector+0xc8>
    800000fc:	30529073          	csrw	mtvec,t0
    80000100:	0010029b          	addiw	t0,zero,1
    80000104:	03529293          	slli	t0,t0,0x35
    80000108:	fff28293          	addi	t0,t0,-1
    8000010c:	3b029073          	csrw	pmpaddr0,t0
    80000110:	01f00293          	li	t0,31
    80000114:	3a029073          	csrw	pmpcfg0,t0
    80000118:	30405073          	csrwi	mie,0
    8000011c:	00000297          	auipc	t0,0x0
    80000120:	01428293          	addi	t0,t0,20 # 80000130 <reset_vector+0xe0>
    80000124:	30529073          	csrw	mtvec,t0
    80000128:	30205073          	csrwi	medeleg,0
    8000012c:	30305073          	csrwi	mideleg,0
    80000130:	00000193          	li	gp,0
    80000134:	00000297          	auipc	t0,0x0
    80000138:	ed028293          	addi	t0,t0,-304 # 80000004 <trap_vector>
    8000013c:	30529073          	csrw	mtvec,t0
    80000140:	00100513          	li	a0,1
    80000144:	01f51513          	slli	a0,a0,0x1f
    80000148:	00055c63          	bgez	a0,80000160 <reset_vector+0x110>
    8000014c:	0ff0000f          	fence
    80000150:	00100193          	li	gp,1
    80000154:	05d00893          	li	a7,93
    80000158:	00000513          	li	a0,0
    8000015c:	00000073          	ecall
    80000160:	00000293          	li	t0,0
    80000164:	00028a63          	beqz	t0,80000178 <reset_vector+0x128>
    80000168:	10529073          	csrw	stvec,t0
    8000016c:	0000b2b7          	lui	t0,0xb
    80000170:	1092829b          	addiw	t0,t0,265 # b109 <_start-0x7fff4ef7>
    80000174:	30229073          	csrw	medeleg,t0
    80000178:	30005073          	csrwi	mstatus,0
    8000017c:	00000297          	auipc	t0,0x0
    80000180:	01428293          	addi	t0,t0,20 # 80000190 <test_2>
    80000184:	34129073          	csrw	mepc,t0
    80000188:	f1402573          	csrr	a0,mhartid
    8000018c:	30200073          	mret

0000000080000190 <test_2>:
    80000190:	00200193          	li	gp,2
    80000194:	00002117          	auipc	sp,0x2
    80000198:	e6c10113          	addi	sp,sp,-404 # 80002000 <begin_signature>
    8000019c:	0aa00093          	li	ra,170
    800001a0:	00000797          	auipc	a5,0x0
    800001a4:	01478793          	addi	a5,a5,20 # 800001b4 <test_2+0x24>
    800001a8:	00111023          	sh	ra,0(sp)
    800001ac:	00011703          	lh	a4,0(sp)
    800001b0:	0080006f          	j	800001b8 <test_2+0x28>
    800001b4:	00008713          	mv	a4,ra
    800001b8:	0aa00393          	li	t2,170
    800001bc:	4c771663          	bne	a4,t2,80000688 <fail>

00000000800001c0 <test_3>:
    800001c0:	00300193          	li	gp,3
    800001c4:	00002117          	auipc	sp,0x2
    800001c8:	e3c10113          	addi	sp,sp,-452 # 80002000 <begin_signature>
    800001cc:	ffffb0b7          	lui	ra,0xffffb
    800001d0:	a000809b          	addiw	ra,ra,-1536 # ffffffffffffaa00 <_end+0xffffffff7fff89e0>
    800001d4:	00000797          	auipc	a5,0x0
    800001d8:	01478793          	addi	a5,a5,20 # 800001e8 <test_3+0x28>
    800001dc:	00111123          	sh	ra,2(sp)
    800001e0:	00211703          	lh	a4,2(sp)
    800001e4:	0080006f          	j	800001ec <test_3+0x2c>
    800001e8:	00008713          	mv	a4,ra
    800001ec:	ffffb3b7          	lui	t2,0xffffb
    800001f0:	a003839b          	addiw	t2,t2,-1536 # ffffffffffffaa00 <_end+0xffffffff7fff89e0>
    800001f4:	48771a63          	bne	a4,t2,80000688 <fail>

00000000800001f8 <test_4>:
    800001f8:	00400193          	li	gp,4
    800001fc:	00002117          	auipc	sp,0x2
    80000200:	e0410113          	addi	sp,sp,-508 # 80002000 <begin_signature>
    80000204:	beef10b7          	lui	ra,0xbeef1
    80000208:	aa00809b          	addiw	ra,ra,-1376 # ffffffffbeef0aa0 <_end+0xffffffff3eeeea80>
    8000020c:	00000797          	auipc	a5,0x0
    80000210:	01478793          	addi	a5,a5,20 # 80000220 <test_4+0x28>
    80000214:	00111223          	sh	ra,4(sp)
    80000218:	00412703          	lw	a4,4(sp)
    8000021c:	0080006f          	j	80000224 <test_4+0x2c>
    80000220:	00008713          	mv	a4,ra
    80000224:	beef13b7          	lui	t2,0xbeef1
    80000228:	aa03839b          	addiw	t2,t2,-1376 # ffffffffbeef0aa0 <_end+0xffffffff3eeeea80>
    8000022c:	44771e63          	bne	a4,t2,80000688 <fail>

0000000080000230 <test_5>:
    80000230:	00500193          	li	gp,5
    80000234:	00002117          	auipc	sp,0x2
    80000238:	dcc10113          	addi	sp,sp,-564 # 80002000 <begin_signature>
    8000023c:	ffffa0b7          	lui	ra,0xffffa
    80000240:	00a0809b          	addiw	ra,ra,10 # ffffffffffffa00a <_end+0xffffffff7fff7fea>
    80000244:	00000797          	auipc	a5,0x0
    80000248:	01478793          	addi	a5,a5,20 # 80000258 <test_5+0x28>
    8000024c:	00111323          	sh	ra,6(sp)
    80000250:	00611703          	lh	a4,6(sp)
    80000254:	0080006f          	j	8000025c <test_5+0x2c>
    80000258:	00008713          	mv	a4,ra
    8000025c:	ffffa3b7          	lui	t2,0xffffa
    80000260:	00a3839b          	addiw	t2,t2,10 # ffffffffffffa00a <_end+0xffffffff7fff7fea>
    80000264:	42771263          	bne	a4,t2,80000688 <fail>

0000000080000268 <test_6>:
    80000268:	00600193          	li	gp,6
    8000026c:	00002117          	auipc	sp,0x2
    80000270:	da210113          	addi	sp,sp,-606 # 8000200e <tdat8>
    80000274:	0aa00093          	li	ra,170
    80000278:	00000797          	auipc	a5,0x0
    8000027c:	01478793          	addi	a5,a5,20 # 8000028c <test_6+0x24>
    80000280:	fe111d23          	sh	ra,-6(sp)
    80000284:	ffa11703          	lh	a4,-6(sp)
    80000288:	0080006f          	j	80000290 <test_6+0x28>
    8000028c:	00008713          	mv	a4,ra
    80000290:	0aa00393          	li	t2,170
    80000294:	3e771a63          	bne	a4,t2,80000688 <fail>

0000000080000298 <test_7>:
    80000298:	00700193          	li	gp,7
    8000029c:	00002117          	auipc	sp,0x2
    800002a0:	d7210113          	addi	sp,sp,-654 # 8000200e <tdat8>
    800002a4:	ffffb0b7          	lui	ra,0xffffb
    800002a8:	a000809b          	addiw	ra,ra,-1536 # ffffffffffffaa00 <_end+0xffffffff7fff89e0>
    800002ac:	00000797          	auipc	a5,0x0
    800002b0:	01478793          	addi	a5,a5,20 # 800002c0 <test_7+0x28>
    800002b4:	fe111e23          	sh	ra,-4(sp)
    800002b8:	ffc11703          	lh	a4,-4(sp)
    800002bc:	0080006f          	j	800002c4 <test_7+0x2c>
    800002c0:	00008713          	mv	a4,ra
    800002c4:	ffffb3b7          	lui	t2,0xffffb
    800002c8:	a003839b          	addiw	t2,t2,-1536 # ffffffffffffaa00 <_end+0xffffffff7fff89e0>
    800002cc:	3a771e63          	bne	a4,t2,80000688 <fail>

00000000800002d0 <test_8>:
    800002d0:	00800193          	li	gp,8
    800002d4:	00002117          	auipc	sp,0x2
    800002d8:	d3a10113          	addi	sp,sp,-710 # 8000200e <tdat8>
    800002dc:	000010b7          	lui	ra,0x1
    800002e0:	aa00809b          	addiw	ra,ra,-1376 # aa0 <_start-0x7ffff560>
    800002e4:	00000797          	auipc	a5,0x0
    800002e8:	01478793          	addi	a5,a5,20 # 800002f8 <test_8+0x28>
    800002ec:	fe111f23          	sh	ra,-2(sp)
    800002f0:	ffe11703          	lh	a4,-2(sp)
    800002f4:	0080006f          	j	800002fc <test_8+0x2c>
    800002f8:	00008713          	mv	a4,ra
    800002fc:	000013b7          	lui	t2,0x1
    80000300:	aa03839b          	addiw	t2,t2,-1376 # aa0 <_start-0x7ffff560>
    80000304:	38771263          	bne	a4,t2,80000688 <fail>

0000000080000308 <test_9>:
    80000308:	00900193          	li	gp,9
    8000030c:	00002117          	auipc	sp,0x2
    80000310:	d0210113          	addi	sp,sp,-766 # 8000200e <tdat8>
    80000314:	ffffa0b7          	lui	ra,0xffffa
    80000318:	00a0809b          	addiw	ra,ra,10 # ffffffffffffa00a <_end+0xffffffff7fff7fea>
    8000031c:	00000797          	auipc	a5,0x0
    80000320:	01478793          	addi	a5,a5,20 # 80000330 <test_9+0x28>
    80000324:	00111023          	sh	ra,0(sp)
    80000328:	00011703          	lh	a4,0(sp)
    8000032c:	0080006f          	j	80000334 <test_9+0x2c>
    80000330:	00008713          	mv	a4,ra
    80000334:	ffffa3b7          	lui	t2,0xffffa
    80000338:	00a3839b          	addiw	t2,t2,10 # ffffffffffffa00a <_end+0xffffffff7fff7fea>
    8000033c:	34771663          	bne	a4,t2,80000688 <fail>

0000000080000340 <test_10>:
    80000340:	00a00193          	li	gp,10
    80000344:	00002097          	auipc	ra,0x2
    80000348:	ccc08093          	addi	ra,ra,-820 # 80002010 <tdat9>
    8000034c:	12345137          	lui	sp,0x12345
    80000350:	6781011b          	addiw	sp,sp,1656 # 12345678 <_start-0x6dcba988>
    80000354:	fe008213          	addi	tp,ra,-32
    80000358:	02221023          	sh	sp,32(tp) # 20 <_start-0x7fffffe0>
    8000035c:	00009283          	lh	t0,0(ra)
    80000360:	000053b7          	lui	t2,0x5
    80000364:	6783839b          	addiw	t2,t2,1656 # 5678 <_start-0x7fffa988>
    80000368:	32729063          	bne	t0,t2,80000688 <fail>

000000008000036c <test_11>:
    8000036c:	00b00193          	li	gp,11
    80000370:	00002097          	auipc	ra,0x2
    80000374:	ca008093          	addi	ra,ra,-864 # 80002010 <tdat9>
    80000378:	00003137          	lui	sp,0x3
    8000037c:	0981011b          	addiw	sp,sp,152 # 3098 <_start-0x7fffcf68>
    80000380:	ffb08093          	addi	ra,ra,-5
    80000384:	002093a3          	sh	sp,7(ra)
    80000388:	00002217          	auipc	tp,0x2
    8000038c:	c8a20213          	addi	tp,tp,-886 # 80002012 <tdat10>
    80000390:	00021283          	lh	t0,0(tp) # 0 <_start-0x80000000>
    80000394:	000033b7          	lui	t2,0x3
    80000398:	0983839b          	addiw	t2,t2,152 # 3098 <_start-0x7fffcf68>
    8000039c:	2e729663          	bne	t0,t2,80000688 <fail>

00000000800003a0 <test_12>:
    800003a0:	00c00193          	li	gp,12
    800003a4:	00000213          	li	tp,0
    800003a8:	ffffd6b7          	lui	a3,0xffffd
    800003ac:	cdd6869b          	addiw	a3,a3,-803 # ffffffffffffccdd <_end+0xffffffff7fffacbd>
    800003b0:	00002617          	auipc	a2,0x2
    800003b4:	c5060613          	addi	a2,a2,-944 # 80002000 <begin_signature>
    800003b8:	00d61023          	sh	a3,0(a2)
    800003bc:	00061703          	lh	a4,0(a2)
    800003c0:	ffffd3b7          	lui	t2,0xffffd
    800003c4:	cdd3839b          	addiw	t2,t2,-803 # ffffffffffffccdd <_end+0xffffffff7fffacbd>
    800003c8:	2c771063          	bne	a4,t2,80000688 <fail>
    800003cc:	00120213          	addi	tp,tp,1 # 1 <_start-0x7fffffff>
    800003d0:	00200293          	li	t0,2
    800003d4:	fc521ae3          	bne	tp,t0,800003a8 <test_12+0x8>

00000000800003d8 <test_13>:
    800003d8:	00d00193          	li	gp,13
    800003dc:	00000213          	li	tp,0
    800003e0:	ffffc6b7          	lui	a3,0xffffc
    800003e4:	ccd6869b          	addiw	a3,a3,-819 # ffffffffffffbccd <_end+0xffffffff7fff9cad>
    800003e8:	00002617          	auipc	a2,0x2
    800003ec:	c1860613          	addi	a2,a2,-1000 # 80002000 <begin_signature>
    800003f0:	00000013          	nop
    800003f4:	00d61123          	sh	a3,2(a2)
    800003f8:	00261703          	lh	a4,2(a2)
    800003fc:	ffffc3b7          	lui	t2,0xffffc
    80000400:	ccd3839b          	addiw	t2,t2,-819 # ffffffffffffbccd <_end+0xffffffff7fff9cad>
    80000404:	28771263          	bne	a4,t2,80000688 <fail>
    80000408:	00120213          	addi	tp,tp,1 # 1 <_start-0x7fffffff>
    8000040c:	00200293          	li	t0,2
    80000410:	fc5218e3          	bne	tp,t0,800003e0 <test_13+0x8>

0000000080000414 <test_14>:
    80000414:	00e00193          	li	gp,14
    80000418:	00000213          	li	tp,0
    8000041c:	ffffc6b7          	lui	a3,0xffffc
    80000420:	bcc6869b          	addiw	a3,a3,-1076 # ffffffffffffbbcc <_end+0xffffffff7fff9bac>
    80000424:	00002617          	auipc	a2,0x2
    80000428:	bdc60613          	addi	a2,a2,-1060 # 80002000 <begin_signature>
    8000042c:	00000013          	nop
    80000430:	00000013          	nop
    80000434:	00d61223          	sh	a3,4(a2)
    80000438:	00461703          	lh	a4,4(a2)
    8000043c:	ffffc3b7          	lui	t2,0xffffc
    80000440:	bcc3839b          	addiw	t2,t2,-1076 # ffffffffffffbbcc <_end+0xffffffff7fff9bac>
    80000444:	24771263          	bne	a4,t2,80000688 <fail>
    80000448:	00120213          	addi	tp,tp,1 # 1 <_start-0x7fffffff>
    8000044c:	00200293          	li	t0,2
    80000450:	fc5216e3          	bne	tp,t0,8000041c <test_14+0x8>

0000000080000454 <test_15>:
    80000454:	00f00193          	li	gp,15
    80000458:	00000213          	li	tp,0
    8000045c:	ffffb6b7          	lui	a3,0xffffb
    80000460:	bbc6869b          	addiw	a3,a3,-1092 # ffffffffffffabbc <_end+0xffffffff7fff8b9c>
    80000464:	00000013          	nop
    80000468:	00002617          	auipc	a2,0x2
    8000046c:	b9860613          	addi	a2,a2,-1128 # 80002000 <begin_signature>
    80000470:	00d61323          	sh	a3,6(a2)
    80000474:	00661703          	lh	a4,6(a2)
    80000478:	ffffb3b7          	lui	t2,0xffffb
    8000047c:	bbc3839b          	addiw	t2,t2,-1092 # ffffffffffffabbc <_end+0xffffffff7fff8b9c>
    80000480:	20771463          	bne	a4,t2,80000688 <fail>
    80000484:	00120213          	addi	tp,tp,1 # 1 <_start-0x7fffffff>
    80000488:	00200293          	li	t0,2
    8000048c:	fc5218e3          	bne	tp,t0,8000045c <test_15+0x8>

0000000080000490 <test_16>:
    80000490:	01000193          	li	gp,16
    80000494:	00000213          	li	tp,0
    80000498:	ffffb6b7          	lui	a3,0xffffb
    8000049c:	abb6869b          	addiw	a3,a3,-1349 # ffffffffffffaabb <_end+0xffffffff7fff8a9b>
    800004a0:	00000013          	nop
    800004a4:	00002617          	auipc	a2,0x2
    800004a8:	b5c60613          	addi	a2,a2,-1188 # 80002000 <begin_signature>
    800004ac:	00000013          	nop
    800004b0:	00d61423          	sh	a3,8(a2)
    800004b4:	00861703          	lh	a4,8(a2)
    800004b8:	ffffb3b7          	lui	t2,0xffffb
    800004bc:	abb3839b          	addiw	t2,t2,-1349 # ffffffffffffaabb <_end+0xffffffff7fff8a9b>
    800004c0:	1c771463          	bne	a4,t2,80000688 <fail>
    800004c4:	00120213          	addi	tp,tp,1 # 1 <_start-0x7fffffff>
    800004c8:	00200293          	li	t0,2
    800004cc:	fc5216e3          	bne	tp,t0,80000498 <test_16+0x8>

00000000800004d0 <test_17>:
    800004d0:	01100193          	li	gp,17
    800004d4:	00000213          	li	tp,0
    800004d8:	ffffe6b7          	lui	a3,0xffffe
    800004dc:	aab6869b          	addiw	a3,a3,-1365 # ffffffffffffdaab <_end+0xffffffff7fffba8b>
    800004e0:	00000013          	nop
    800004e4:	00000013          	nop
    800004e8:	00002617          	auipc	a2,0x2
    800004ec:	b1860613          	addi	a2,a2,-1256 # 80002000 <begin_signature>
    800004f0:	00d61523          	sh	a3,10(a2)
    800004f4:	00a61703          	lh	a4,10(a2)
    800004f8:	ffffe3b7          	lui	t2,0xffffe
    800004fc:	aab3839b          	addiw	t2,t2,-1365 # ffffffffffffdaab <_end+0xffffffff7fffba8b>
    80000500:	18771463          	bne	a4,t2,80000688 <fail>
    80000504:	00120213          	addi	tp,tp,1 # 1 <_start-0x7fffffff>
    80000508:	00200293          	li	t0,2
    8000050c:	fc5216e3          	bne	tp,t0,800004d8 <test_17+0x8>

0000000080000510 <test_18>:
    80000510:	01200193          	li	gp,18
    80000514:	00000213          	li	tp,0
    80000518:	00002117          	auipc	sp,0x2
    8000051c:	ae810113          	addi	sp,sp,-1304 # 80002000 <begin_signature>
    80000520:	000020b7          	lui	ra,0x2
    80000524:	2330809b          	addiw	ra,ra,563 # 2233 <_start-0x7fffddcd>
    80000528:	00111023          	sh	ra,0(sp)
    8000052c:	00011703          	lh	a4,0(sp)
    80000530:	000023b7          	lui	t2,0x2
    80000534:	2333839b          	addiw	t2,t2,563 # 2233 <_start-0x7fffddcd>
    80000538:	14771863          	bne	a4,t2,80000688 <fail>
    8000053c:	00120213          	addi	tp,tp,1 # 1 <_start-0x7fffffff>
    80000540:	00200293          	li	t0,2
    80000544:	fc521ae3          	bne	tp,t0,80000518 <test_18+0x8>

0000000080000548 <test_19>:
    80000548:	01300193          	li	gp,19
    8000054c:	00000213          	li	tp,0
    80000550:	00002117          	auipc	sp,0x2
    80000554:	ab010113          	addi	sp,sp,-1360 # 80002000 <begin_signature>
    80000558:	000010b7          	lui	ra,0x1
    8000055c:	2230809b          	addiw	ra,ra,547 # 1223 <_start-0x7fffeddd>
    80000560:	00000013          	nop
    80000564:	00111123          	sh	ra,2(sp)
    80000568:	00211703          	lh	a4,2(sp)
    8000056c:	000013b7          	lui	t2,0x1
    80000570:	2233839b          	addiw	t2,t2,547 # 1223 <_start-0x7fffeddd>
    80000574:	10771a63          	bne	a4,t2,80000688 <fail>
    80000578:	00120213          	addi	tp,tp,1 # 1 <_start-0x7fffffff>
    8000057c:	00200293          	li	t0,2
    80000580:	fc5218e3          	bne	tp,t0,80000550 <test_19+0x8>

0000000080000584 <test_20>:
    80000584:	01400193          	li	gp,20
    80000588:	00000213          	li	tp,0
    8000058c:	00002117          	auipc	sp,0x2
    80000590:	a7410113          	addi	sp,sp,-1420 # 80002000 <begin_signature>
    80000594:	000010b7          	lui	ra,0x1
    80000598:	1220809b          	addiw	ra,ra,290 # 1122 <_start-0x7fffeede>
    8000059c:	00000013          	nop
    800005a0:	00000013          	nop
    800005a4:	00111223          	sh	ra,4(sp)
    800005a8:	00411703          	lh	a4,4(sp)
    800005ac:	000013b7          	lui	t2,0x1
    800005b0:	1223839b          	addiw	t2,t2,290 # 1122 <_start-0x7fffeede>
    800005b4:	0c771a63          	bne	a4,t2,80000688 <fail>
    800005b8:	00120213          	addi	tp,tp,1 # 1 <_start-0x7fffffff>
    800005bc:	00200293          	li	t0,2
    800005c0:	fc5216e3          	bne	tp,t0,8000058c <test_20+0x8>

00000000800005c4 <test_21>:
    800005c4:	01500193          	li	gp,21
    800005c8:	00000213          	li	tp,0
    800005cc:	00002117          	auipc	sp,0x2
    800005d0:	a3410113          	addi	sp,sp,-1484 # 80002000 <begin_signature>
    800005d4:	00000013          	nop
    800005d8:	11200093          	li	ra,274
    800005dc:	00111323          	sh	ra,6(sp)
    800005e0:	00611703          	lh	a4,6(sp)
    800005e4:	11200393          	li	t2,274
    800005e8:	0a771063          	bne	a4,t2,80000688 <fail>
    800005ec:	00120213          	addi	tp,tp,1 # 1 <_start-0x7fffffff>
    800005f0:	00200293          	li	t0,2
    800005f4:	fc521ce3          	bne	tp,t0,800005cc <test_21+0x8>

00000000800005f8 <test_22>:
    800005f8:	01600193          	li	gp,22
    800005fc:	00000213          	li	tp,0
    80000600:	00002117          	auipc	sp,0x2
    80000604:	a0010113          	addi	sp,sp,-1536 # 80002000 <begin_signature>
    80000608:	00000013          	nop
    8000060c:	01100093          	li	ra,17
    80000610:	00000013          	nop
    80000614:	00111423          	sh	ra,8(sp)
    80000618:	00811703          	lh	a4,8(sp)
    8000061c:	01100393          	li	t2,17
    80000620:	06771463          	bne	a4,t2,80000688 <fail>
    80000624:	00120213          	addi	tp,tp,1 # 1 <_start-0x7fffffff>
    80000628:	00200293          	li	t0,2
    8000062c:	fc521ae3          	bne	tp,t0,80000600 <test_22+0x8>

0000000080000630 <test_23>:
    80000630:	01700193          	li	gp,23
    80000634:	00000213          	li	tp,0
    80000638:	00002117          	auipc	sp,0x2
    8000063c:	9c810113          	addi	sp,sp,-1592 # 80002000 <begin_signature>
    80000640:	00000013          	nop
    80000644:	00000013          	nop
    80000648:	000030b7          	lui	ra,0x3
    8000064c:	0010809b          	addiw	ra,ra,1 # 3001 <_start-0x7fffcfff>
    80000650:	00111523          	sh	ra,10(sp)
    80000654:	00a11703          	lh	a4,10(sp)
    80000658:	000033b7          	lui	t2,0x3
    8000065c:	0013839b          	addiw	t2,t2,1 # 3001 <_start-0x7fffcfff>
    80000660:	02771463          	bne	a4,t2,80000688 <fail>
    80000664:	00120213          	addi	tp,tp,1 # 1 <_start-0x7fffffff>
    80000668:	00200293          	li	t0,2
    8000066c:	fc5216e3          	bne	tp,t0,80000638 <test_23+0x8>
    80000670:	0000c537          	lui	a0,0xc
    80000674:	eef5051b          	addiw	a0,a0,-273 # beef <_start-0x7fff4111>
    80000678:	00002597          	auipc	a1,0x2
    8000067c:	98858593          	addi	a1,a1,-1656 # 80002000 <begin_signature>
    80000680:	00a59323          	sh	a0,6(a1)
    80000684:	02301063          	bne	zero,gp,800006a4 <pass>

0000000080000688 <fail>:
    80000688:	0ff0000f          	fence
    8000068c:	00018063          	beqz	gp,8000068c <fail+0x4>
    80000690:	00119193          	slli	gp,gp,0x1
    80000694:	0011e193          	ori	gp,gp,1
    80000698:	05d00893          	li	a7,93
    8000069c:	00018513          	mv	a0,gp
    800006a0:	00000073          	ecall

00000000800006a4 <pass>:
    800006a4:	0ff0000f          	fence
    800006a8:	00100193          	li	gp,1
    800006ac:	05d00893          	li	a7,93
    800006b0:	00000513          	li	a0,0
    800006b4:	00000073          	ecall
    800006b8:	c0001073          	unimp
