
rv64ud-p-fcvt_w:     file format elf64-littleriscv


Disassembly of section .text.init:

0000000080000000 <_start>:
    80000000:	0500006f          	j	80000050 <reset_vector>

0000000080000004 <trap_vector>:
    80000004:	34202f73          	csrr	t5,mcause
    80000008:	00800f93          	li	t6,8
    8000000c:	03ff0863          	beq	t5,t6,8000003c <write_tohost>
    80000010:	00900f93          	li	t6,9
    80000014:	03ff0463          	beq	t5,t6,8000003c <write_tohost>
    80000018:	00b00f93          	li	t6,11
    8000001c:	03ff0063          	beq	t5,t6,8000003c <write_tohost>
    80000020:	00000f13          	li	t5,0
    80000024:	000f0463          	beqz	t5,8000002c <trap_vector+0x28>
    80000028:	000f0067          	jr	t5
    8000002c:	34202f73          	csrr	t5,mcause
    80000030:	000f5463          	bgez	t5,80000038 <handle_exception>
    80000034:	0040006f          	j	80000038 <handle_exception>

0000000080000038 <handle_exception>:
    80000038:	5391e193          	ori	gp,gp,1337

000000008000003c <write_tohost>:
    8000003c:	00001f17          	auipc	t5,0x1
    80000040:	fc3f2223          	sw	gp,-60(t5) # 80001000 <tohost>
    80000044:	00001f17          	auipc	t5,0x1
    80000048:	fc0f2023          	sw	zero,-64(t5) # 80001004 <tohost+0x4>
    8000004c:	ff1ff06f          	j	8000003c <write_tohost>

0000000080000050 <reset_vector>:
    80000050:	00000093          	li	ra,0
    80000054:	00000113          	li	sp,0
    80000058:	00000193          	li	gp,0
    8000005c:	00000213          	li	tp,0
    80000060:	00000293          	li	t0,0
    80000064:	00000313          	li	t1,0
    80000068:	00000393          	li	t2,0
    8000006c:	00000413          	li	s0,0
    80000070:	00000493          	li	s1,0
    80000074:	00000513          	li	a0,0
    80000078:	00000593          	li	a1,0
    8000007c:	00000613          	li	a2,0
    80000080:	00000693          	li	a3,0
    80000084:	00000713          	li	a4,0
    80000088:	00000793          	li	a5,0
    8000008c:	00000813          	li	a6,0
    80000090:	00000893          	li	a7,0
    80000094:	00000913          	li	s2,0
    80000098:	00000993          	li	s3,0
    8000009c:	00000a13          	li	s4,0
    800000a0:	00000a93          	li	s5,0
    800000a4:	00000b13          	li	s6,0
    800000a8:	00000b93          	li	s7,0
    800000ac:	00000c13          	li	s8,0
    800000b0:	00000c93          	li	s9,0
    800000b4:	00000d13          	li	s10,0
    800000b8:	00000d93          	li	s11,0
    800000bc:	00000e13          	li	t3,0
    800000c0:	00000e93          	li	t4,0
    800000c4:	00000f13          	li	t5,0
    800000c8:	00000f93          	li	t6,0
    800000cc:	f1402573          	csrr	a0,mhartid
    800000d0:	00051063          	bnez	a0,800000d0 <reset_vector+0x80>
    800000d4:	00000297          	auipc	t0,0x0
    800000d8:	01028293          	addi	t0,t0,16 # 800000e4 <reset_vector+0x94>
    800000dc:	30529073          	csrw	mtvec,t0
    800000e0:	74445073          	csrwi	0x744,8
    800000e4:	00000297          	auipc	t0,0x0
    800000e8:	01028293          	addi	t0,t0,16 # 800000f4 <reset_vector+0xa4>
    800000ec:	30529073          	csrw	mtvec,t0
    800000f0:	18005073          	csrwi	satp,0
    800000f4:	00000297          	auipc	t0,0x0
    800000f8:	02428293          	addi	t0,t0,36 # 80000118 <reset_vector+0xc8>
    800000fc:	30529073          	csrw	mtvec,t0
    80000100:	0010029b          	addiw	t0,zero,1
    80000104:	03529293          	slli	t0,t0,0x35
    80000108:	fff28293          	addi	t0,t0,-1
    8000010c:	3b029073          	csrw	pmpaddr0,t0
    80000110:	01f00293          	li	t0,31
    80000114:	3a029073          	csrw	pmpcfg0,t0
    80000118:	30405073          	csrwi	mie,0
    8000011c:	00000297          	auipc	t0,0x0
    80000120:	01428293          	addi	t0,t0,20 # 80000130 <reset_vector+0xe0>
    80000124:	30529073          	csrw	mtvec,t0
    80000128:	30205073          	csrwi	medeleg,0
    8000012c:	30305073          	csrwi	mideleg,0
    80000130:	00000193          	li	gp,0
    80000134:	00000297          	auipc	t0,0x0
    80000138:	ed028293          	addi	t0,t0,-304 # 80000004 <trap_vector>
    8000013c:	30529073          	csrw	mtvec,t0
    80000140:	00100513          	li	a0,1
    80000144:	01f51513          	slli	a0,a0,0x1f
    80000148:	00055c63          	bgez	a0,80000160 <reset_vector+0x110>
    8000014c:	0ff0000f          	fence
    80000150:	00100193          	li	gp,1
    80000154:	05d00893          	li	a7,93
    80000158:	00000513          	li	a0,0
    8000015c:	00000073          	ecall
    80000160:	00000293          	li	t0,0
    80000164:	00028a63          	beqz	t0,80000178 <reset_vector+0x128>
    80000168:	10529073          	csrw	stvec,t0
    8000016c:	0000b2b7          	lui	t0,0xb
    80000170:	1092829b          	addiw	t0,t0,265 # b109 <_start-0x7fff4ef7>
    80000174:	30229073          	csrw	medeleg,t0
    80000178:	30005073          	csrwi	mstatus,0
    8000017c:	00002537          	lui	a0,0x2
    80000180:	30052073          	csrs	mstatus,a0
    80000184:	00305073          	csrwi	fcsr,0
    80000188:	00000297          	auipc	t0,0x0
    8000018c:	01428293          	addi	t0,t0,20 # 8000019c <test_2>
    80000190:	34129073          	csrw	mepc,t0
    80000194:	f1402573          	csrr	a0,mhartid
    80000198:	30200073          	mret

000000008000019c <test_2>:
    8000019c:	00200193          	li	gp,2
    800001a0:	00002517          	auipc	a0,0x2
    800001a4:	e6050513          	addi	a0,a0,-416 # 80002000 <test_2_data>
    800001a8:	00053507          	fld	fa0,0(a0)
    800001ac:	00853587          	fld	fa1,8(a0)
    800001b0:	01053607          	fld	fa2,16(a0)
    800001b4:	01853683          	ld	a3,24(a0)
    800001b8:	c2051553          	fcvt.w.d	a0,fa0,rtz
    800001bc:	001015f3          	fsflags	a1,zero
    800001c0:	00100613          	li	a2,1
    800001c4:	02d512e3          	bne	a0,a3,800009e8 <fail>
    800001c8:	02c590e3          	bne	a1,a2,800009e8 <fail>

00000000800001cc <test_3>:
    800001cc:	00300193          	li	gp,3
    800001d0:	00002517          	auipc	a0,0x2
    800001d4:	e5050513          	addi	a0,a0,-432 # 80002020 <test_3_data>
    800001d8:	00053507          	fld	fa0,0(a0)
    800001dc:	00853587          	fld	fa1,8(a0)
    800001e0:	01053607          	fld	fa2,16(a0)
    800001e4:	01853683          	ld	a3,24(a0)
    800001e8:	c2051553          	fcvt.w.d	a0,fa0,rtz
    800001ec:	001015f3          	fsflags	a1,zero
    800001f0:	00000613          	li	a2,0
    800001f4:	7ed51a63          	bne	a0,a3,800009e8 <fail>
    800001f8:	7ec59863          	bne	a1,a2,800009e8 <fail>

00000000800001fc <test_4>:
    800001fc:	00400193          	li	gp,4
    80000200:	00002517          	auipc	a0,0x2
    80000204:	e4050513          	addi	a0,a0,-448 # 80002040 <test_4_data>
    80000208:	00053507          	fld	fa0,0(a0)
    8000020c:	00853587          	fld	fa1,8(a0)
    80000210:	01053607          	fld	fa2,16(a0)
    80000214:	01853683          	ld	a3,24(a0)
    80000218:	c2051553          	fcvt.w.d	a0,fa0,rtz
    8000021c:	001015f3          	fsflags	a1,zero
    80000220:	00100613          	li	a2,1
    80000224:	7cd51263          	bne	a0,a3,800009e8 <fail>
    80000228:	7cc59063          	bne	a1,a2,800009e8 <fail>

000000008000022c <test_5>:
    8000022c:	00500193          	li	gp,5
    80000230:	00002517          	auipc	a0,0x2
    80000234:	e3050513          	addi	a0,a0,-464 # 80002060 <test_5_data>
    80000238:	00053507          	fld	fa0,0(a0)
    8000023c:	00853587          	fld	fa1,8(a0)
    80000240:	01053607          	fld	fa2,16(a0)
    80000244:	01853683          	ld	a3,24(a0)
    80000248:	c2051553          	fcvt.w.d	a0,fa0,rtz
    8000024c:	001015f3          	fsflags	a1,zero
    80000250:	00100613          	li	a2,1
    80000254:	78d51a63          	bne	a0,a3,800009e8 <fail>
    80000258:	78c59863          	bne	a1,a2,800009e8 <fail>

000000008000025c <test_6>:
    8000025c:	00600193          	li	gp,6
    80000260:	00002517          	auipc	a0,0x2
    80000264:	e2050513          	addi	a0,a0,-480 # 80002080 <test_6_data>
    80000268:	00053507          	fld	fa0,0(a0)
    8000026c:	00853587          	fld	fa1,8(a0)
    80000270:	01053607          	fld	fa2,16(a0)
    80000274:	01853683          	ld	a3,24(a0)
    80000278:	c2051553          	fcvt.w.d	a0,fa0,rtz
    8000027c:	001015f3          	fsflags	a1,zero
    80000280:	00000613          	li	a2,0
    80000284:	76d51263          	bne	a0,a3,800009e8 <fail>
    80000288:	76c59063          	bne	a1,a2,800009e8 <fail>

000000008000028c <test_7>:
    8000028c:	00700193          	li	gp,7
    80000290:	00002517          	auipc	a0,0x2
    80000294:	e1050513          	addi	a0,a0,-496 # 800020a0 <test_7_data>
    80000298:	00053507          	fld	fa0,0(a0)
    8000029c:	00853587          	fld	fa1,8(a0)
    800002a0:	01053607          	fld	fa2,16(a0)
    800002a4:	01853683          	ld	a3,24(a0)
    800002a8:	c2051553          	fcvt.w.d	a0,fa0,rtz
    800002ac:	001015f3          	fsflags	a1,zero
    800002b0:	00100613          	li	a2,1
    800002b4:	72d51a63          	bne	a0,a3,800009e8 <fail>
    800002b8:	72c59863          	bne	a1,a2,800009e8 <fail>

00000000800002bc <test_8>:
    800002bc:	00800193          	li	gp,8
    800002c0:	00002517          	auipc	a0,0x2
    800002c4:	e0050513          	addi	a0,a0,-512 # 800020c0 <test_8_data>
    800002c8:	00053507          	fld	fa0,0(a0)
    800002cc:	00853587          	fld	fa1,8(a0)
    800002d0:	01053607          	fld	fa2,16(a0)
    800002d4:	01853683          	ld	a3,24(a0)
    800002d8:	c2051553          	fcvt.w.d	a0,fa0,rtz
    800002dc:	001015f3          	fsflags	a1,zero
    800002e0:	01000613          	li	a2,16
    800002e4:	70d51263          	bne	a0,a3,800009e8 <fail>
    800002e8:	70c59063          	bne	a1,a2,800009e8 <fail>

00000000800002ec <test_9>:
    800002ec:	00900193          	li	gp,9
    800002f0:	00002517          	auipc	a0,0x2
    800002f4:	df050513          	addi	a0,a0,-528 # 800020e0 <test_9_data>
    800002f8:	00053507          	fld	fa0,0(a0)
    800002fc:	00853587          	fld	fa1,8(a0)
    80000300:	01053607          	fld	fa2,16(a0)
    80000304:	01853683          	ld	a3,24(a0)
    80000308:	c2051553          	fcvt.w.d	a0,fa0,rtz
    8000030c:	001015f3          	fsflags	a1,zero
    80000310:	01000613          	li	a2,16
    80000314:	6cd51a63          	bne	a0,a3,800009e8 <fail>
    80000318:	6cc59863          	bne	a1,a2,800009e8 <fail>

000000008000031c <test_12>:
    8000031c:	00c00193          	li	gp,12
    80000320:	00002517          	auipc	a0,0x2
    80000324:	de050513          	addi	a0,a0,-544 # 80002100 <test_12_data>
    80000328:	00053507          	fld	fa0,0(a0)
    8000032c:	00853587          	fld	fa1,8(a0)
    80000330:	01053607          	fld	fa2,16(a0)
    80000334:	01853683          	ld	a3,24(a0)
    80000338:	c2151553          	fcvt.wu.d	a0,fa0,rtz
    8000033c:	001015f3          	fsflags	a1,zero
    80000340:	01000613          	li	a2,16
    80000344:	6ad51263          	bne	a0,a3,800009e8 <fail>
    80000348:	6ac59063          	bne	a1,a2,800009e8 <fail>

000000008000034c <test_13>:
    8000034c:	00d00193          	li	gp,13
    80000350:	00002517          	auipc	a0,0x2
    80000354:	dd050513          	addi	a0,a0,-560 # 80002120 <test_13_data>
    80000358:	00053507          	fld	fa0,0(a0)
    8000035c:	00853587          	fld	fa1,8(a0)
    80000360:	01053607          	fld	fa2,16(a0)
    80000364:	01853683          	ld	a3,24(a0)
    80000368:	c2151553          	fcvt.wu.d	a0,fa0,rtz
    8000036c:	001015f3          	fsflags	a1,zero
    80000370:	01000613          	li	a2,16
    80000374:	66d51a63          	bne	a0,a3,800009e8 <fail>
    80000378:	66c59863          	bne	a1,a2,800009e8 <fail>

000000008000037c <test_14>:
    8000037c:	00e00193          	li	gp,14
    80000380:	00002517          	auipc	a0,0x2
    80000384:	dc050513          	addi	a0,a0,-576 # 80002140 <test_14_data>
    80000388:	00053507          	fld	fa0,0(a0)
    8000038c:	00853587          	fld	fa1,8(a0)
    80000390:	01053607          	fld	fa2,16(a0)
    80000394:	01853683          	ld	a3,24(a0)
    80000398:	c2151553          	fcvt.wu.d	a0,fa0,rtz
    8000039c:	001015f3          	fsflags	a1,zero
    800003a0:	00100613          	li	a2,1
    800003a4:	64d51263          	bne	a0,a3,800009e8 <fail>
    800003a8:	64c59063          	bne	a1,a2,800009e8 <fail>

00000000800003ac <test_15>:
    800003ac:	00f00193          	li	gp,15
    800003b0:	00002517          	auipc	a0,0x2
    800003b4:	db050513          	addi	a0,a0,-592 # 80002160 <test_15_data>
    800003b8:	00053507          	fld	fa0,0(a0)
    800003bc:	00853587          	fld	fa1,8(a0)
    800003c0:	01053607          	fld	fa2,16(a0)
    800003c4:	01853683          	ld	a3,24(a0)
    800003c8:	c2151553          	fcvt.wu.d	a0,fa0,rtz
    800003cc:	001015f3          	fsflags	a1,zero
    800003d0:	00100613          	li	a2,1
    800003d4:	60d51a63          	bne	a0,a3,800009e8 <fail>
    800003d8:	60c59863          	bne	a1,a2,800009e8 <fail>

00000000800003dc <test_16>:
    800003dc:	01000193          	li	gp,16
    800003e0:	00002517          	auipc	a0,0x2
    800003e4:	da050513          	addi	a0,a0,-608 # 80002180 <test_16_data>
    800003e8:	00053507          	fld	fa0,0(a0)
    800003ec:	00853587          	fld	fa1,8(a0)
    800003f0:	01053607          	fld	fa2,16(a0)
    800003f4:	01853683          	ld	a3,24(a0)
    800003f8:	c2151553          	fcvt.wu.d	a0,fa0,rtz
    800003fc:	001015f3          	fsflags	a1,zero
    80000400:	00000613          	li	a2,0
    80000404:	5ed51263          	bne	a0,a3,800009e8 <fail>
    80000408:	5ec59063          	bne	a1,a2,800009e8 <fail>

000000008000040c <test_17>:
    8000040c:	01100193          	li	gp,17
    80000410:	00002517          	auipc	a0,0x2
    80000414:	d9050513          	addi	a0,a0,-624 # 800021a0 <test_17_data>
    80000418:	00053507          	fld	fa0,0(a0)
    8000041c:	00853587          	fld	fa1,8(a0)
    80000420:	01053607          	fld	fa2,16(a0)
    80000424:	01853683          	ld	a3,24(a0)
    80000428:	c2151553          	fcvt.wu.d	a0,fa0,rtz
    8000042c:	001015f3          	fsflags	a1,zero
    80000430:	00100613          	li	a2,1
    80000434:	5ad51a63          	bne	a0,a3,800009e8 <fail>
    80000438:	5ac59863          	bne	a1,a2,800009e8 <fail>

000000008000043c <test_18>:
    8000043c:	01200193          	li	gp,18
    80000440:	00002517          	auipc	a0,0x2
    80000444:	d8050513          	addi	a0,a0,-640 # 800021c0 <test_18_data>
    80000448:	00053507          	fld	fa0,0(a0)
    8000044c:	00853587          	fld	fa1,8(a0)
    80000450:	01053607          	fld	fa2,16(a0)
    80000454:	01853683          	ld	a3,24(a0)
    80000458:	c2151553          	fcvt.wu.d	a0,fa0,rtz
    8000045c:	001015f3          	fsflags	a1,zero
    80000460:	01000613          	li	a2,16
    80000464:	58d51263          	bne	a0,a3,800009e8 <fail>
    80000468:	58c59063          	bne	a1,a2,800009e8 <fail>

000000008000046c <test_19>:
    8000046c:	01300193          	li	gp,19
    80000470:	00002517          	auipc	a0,0x2
    80000474:	d7050513          	addi	a0,a0,-656 # 800021e0 <test_19_data>
    80000478:	00053507          	fld	fa0,0(a0)
    8000047c:	00853587          	fld	fa1,8(a0)
    80000480:	01053607          	fld	fa2,16(a0)
    80000484:	01853683          	ld	a3,24(a0)
    80000488:	c2151553          	fcvt.wu.d	a0,fa0,rtz
    8000048c:	001015f3          	fsflags	a1,zero
    80000490:	00000613          	li	a2,0
    80000494:	54d51a63          	bne	a0,a3,800009e8 <fail>
    80000498:	54c59863          	bne	a1,a2,800009e8 <fail>

000000008000049c <test_22>:
    8000049c:	01600193          	li	gp,22
    800004a0:	00002517          	auipc	a0,0x2
    800004a4:	d6050513          	addi	a0,a0,-672 # 80002200 <test_22_data>
    800004a8:	00053507          	fld	fa0,0(a0)
    800004ac:	00853587          	fld	fa1,8(a0)
    800004b0:	01053607          	fld	fa2,16(a0)
    800004b4:	01853683          	ld	a3,24(a0)
    800004b8:	c2251553          	fcvt.l.d	a0,fa0,rtz
    800004bc:	001015f3          	fsflags	a1,zero
    800004c0:	00100613          	li	a2,1
    800004c4:	52d51263          	bne	a0,a3,800009e8 <fail>
    800004c8:	52c59063          	bne	a1,a2,800009e8 <fail>

00000000800004cc <test_23>:
    800004cc:	01700193          	li	gp,23
    800004d0:	00002517          	auipc	a0,0x2
    800004d4:	d5050513          	addi	a0,a0,-688 # 80002220 <test_23_data>
    800004d8:	00053507          	fld	fa0,0(a0)
    800004dc:	00853587          	fld	fa1,8(a0)
    800004e0:	01053607          	fld	fa2,16(a0)
    800004e4:	01853683          	ld	a3,24(a0)
    800004e8:	c2251553          	fcvt.l.d	a0,fa0,rtz
    800004ec:	001015f3          	fsflags	a1,zero
    800004f0:	00000613          	li	a2,0
    800004f4:	4ed51a63          	bne	a0,a3,800009e8 <fail>
    800004f8:	4ec59863          	bne	a1,a2,800009e8 <fail>

00000000800004fc <test_24>:
    800004fc:	01800193          	li	gp,24
    80000500:	00002517          	auipc	a0,0x2
    80000504:	d4050513          	addi	a0,a0,-704 # 80002240 <test_24_data>
    80000508:	00053507          	fld	fa0,0(a0)
    8000050c:	00853587          	fld	fa1,8(a0)
    80000510:	01053607          	fld	fa2,16(a0)
    80000514:	01853683          	ld	a3,24(a0)
    80000518:	c2251553          	fcvt.l.d	a0,fa0,rtz
    8000051c:	001015f3          	fsflags	a1,zero
    80000520:	00100613          	li	a2,1
    80000524:	4cd51263          	bne	a0,a3,800009e8 <fail>
    80000528:	4cc59063          	bne	a1,a2,800009e8 <fail>

000000008000052c <test_25>:
    8000052c:	01900193          	li	gp,25
    80000530:	00002517          	auipc	a0,0x2
    80000534:	d3050513          	addi	a0,a0,-720 # 80002260 <test_25_data>
    80000538:	00053507          	fld	fa0,0(a0)
    8000053c:	00853587          	fld	fa1,8(a0)
    80000540:	01053607          	fld	fa2,16(a0)
    80000544:	01853683          	ld	a3,24(a0)
    80000548:	c2251553          	fcvt.l.d	a0,fa0,rtz
    8000054c:	001015f3          	fsflags	a1,zero
    80000550:	00100613          	li	a2,1
    80000554:	48d51a63          	bne	a0,a3,800009e8 <fail>
    80000558:	48c59863          	bne	a1,a2,800009e8 <fail>

000000008000055c <test_26>:
    8000055c:	01a00193          	li	gp,26
    80000560:	00002517          	auipc	a0,0x2
    80000564:	d2050513          	addi	a0,a0,-736 # 80002280 <test_26_data>
    80000568:	00053507          	fld	fa0,0(a0)
    8000056c:	00853587          	fld	fa1,8(a0)
    80000570:	01053607          	fld	fa2,16(a0)
    80000574:	01853683          	ld	a3,24(a0)
    80000578:	c2251553          	fcvt.l.d	a0,fa0,rtz
    8000057c:	001015f3          	fsflags	a1,zero
    80000580:	00000613          	li	a2,0
    80000584:	46d51263          	bne	a0,a3,800009e8 <fail>
    80000588:	46c59063          	bne	a1,a2,800009e8 <fail>

000000008000058c <test_27>:
    8000058c:	01b00193          	li	gp,27
    80000590:	00002517          	auipc	a0,0x2
    80000594:	d1050513          	addi	a0,a0,-752 # 800022a0 <test_27_data>
    80000598:	00053507          	fld	fa0,0(a0)
    8000059c:	00853587          	fld	fa1,8(a0)
    800005a0:	01053607          	fld	fa2,16(a0)
    800005a4:	01853683          	ld	a3,24(a0)
    800005a8:	c2251553          	fcvt.l.d	a0,fa0,rtz
    800005ac:	001015f3          	fsflags	a1,zero
    800005b0:	00100613          	li	a2,1
    800005b4:	42d51a63          	bne	a0,a3,800009e8 <fail>
    800005b8:	42c59863          	bne	a1,a2,800009e8 <fail>

00000000800005bc <test_28>:
    800005bc:	01c00193          	li	gp,28
    800005c0:	00002517          	auipc	a0,0x2
    800005c4:	d0050513          	addi	a0,a0,-768 # 800022c0 <test_28_data>
    800005c8:	00053507          	fld	fa0,0(a0)
    800005cc:	00853587          	fld	fa1,8(a0)
    800005d0:	01053607          	fld	fa2,16(a0)
    800005d4:	01853683          	ld	a3,24(a0)
    800005d8:	c2251553          	fcvt.l.d	a0,fa0,rtz
    800005dc:	001015f3          	fsflags	a1,zero
    800005e0:	00000613          	li	a2,0
    800005e4:	40d51263          	bne	a0,a3,800009e8 <fail>
    800005e8:	40c59063          	bne	a1,a2,800009e8 <fail>

00000000800005ec <test_29>:
    800005ec:	01d00193          	li	gp,29
    800005f0:	00002517          	auipc	a0,0x2
    800005f4:	cf050513          	addi	a0,a0,-784 # 800022e0 <test_29_data>
    800005f8:	00053507          	fld	fa0,0(a0)
    800005fc:	00853587          	fld	fa1,8(a0)
    80000600:	01053607          	fld	fa2,16(a0)
    80000604:	01853683          	ld	a3,24(a0)
    80000608:	c2251553          	fcvt.l.d	a0,fa0,rtz
    8000060c:	001015f3          	fsflags	a1,zero
    80000610:	00000613          	li	a2,0
    80000614:	3cd51a63          	bne	a0,a3,800009e8 <fail>
    80000618:	3cc59863          	bne	a1,a2,800009e8 <fail>

000000008000061c <test_20>:
    8000061c:	01400193          	li	gp,20
    80000620:	00002517          	auipc	a0,0x2
    80000624:	ce050513          	addi	a0,a0,-800 # 80002300 <test_20_data>
    80000628:	00053507          	fld	fa0,0(a0)
    8000062c:	00853587          	fld	fa1,8(a0)
    80000630:	01053607          	fld	fa2,16(a0)
    80000634:	01853683          	ld	a3,24(a0)
    80000638:	c2251553          	fcvt.l.d	a0,fa0,rtz
    8000063c:	001015f3          	fsflags	a1,zero
    80000640:	01000613          	li	a2,16
    80000644:	3ad51263          	bne	a0,a3,800009e8 <fail>
    80000648:	3ac59063          	bne	a1,a2,800009e8 <fail>

000000008000064c <test_21>:
    8000064c:	01500193          	li	gp,21
    80000650:	00002517          	auipc	a0,0x2
    80000654:	cd050513          	addi	a0,a0,-816 # 80002320 <test_21_data>
    80000658:	00053507          	fld	fa0,0(a0)
    8000065c:	00853587          	fld	fa1,8(a0)
    80000660:	01053607          	fld	fa2,16(a0)
    80000664:	01853683          	ld	a3,24(a0)
    80000668:	c2251553          	fcvt.l.d	a0,fa0,rtz
    8000066c:	001015f3          	fsflags	a1,zero
    80000670:	01000613          	li	a2,16
    80000674:	36d51a63          	bne	a0,a3,800009e8 <fail>
    80000678:	36c59863          	bne	a1,a2,800009e8 <fail>

000000008000067c <test_32>:
    8000067c:	02000193          	li	gp,32
    80000680:	00002517          	auipc	a0,0x2
    80000684:	cc050513          	addi	a0,a0,-832 # 80002340 <test_32_data>
    80000688:	00053507          	fld	fa0,0(a0)
    8000068c:	00853587          	fld	fa1,8(a0)
    80000690:	01053607          	fld	fa2,16(a0)
    80000694:	01853683          	ld	a3,24(a0)
    80000698:	c2351553          	fcvt.lu.d	a0,fa0,rtz
    8000069c:	001015f3          	fsflags	a1,zero
    800006a0:	01000613          	li	a2,16
    800006a4:	34d51263          	bne	a0,a3,800009e8 <fail>
    800006a8:	34c59063          	bne	a1,a2,800009e8 <fail>

00000000800006ac <test_33>:
    800006ac:	02100193          	li	gp,33
    800006b0:	00002517          	auipc	a0,0x2
    800006b4:	cb050513          	addi	a0,a0,-848 # 80002360 <test_33_data>
    800006b8:	00053507          	fld	fa0,0(a0)
    800006bc:	00853587          	fld	fa1,8(a0)
    800006c0:	01053607          	fld	fa2,16(a0)
    800006c4:	01853683          	ld	a3,24(a0)
    800006c8:	c2351553          	fcvt.lu.d	a0,fa0,rtz
    800006cc:	001015f3          	fsflags	a1,zero
    800006d0:	01000613          	li	a2,16
    800006d4:	30d51a63          	bne	a0,a3,800009e8 <fail>
    800006d8:	30c59863          	bne	a1,a2,800009e8 <fail>

00000000800006dc <test_34>:
    800006dc:	02200193          	li	gp,34
    800006e0:	00002517          	auipc	a0,0x2
    800006e4:	ca050513          	addi	a0,a0,-864 # 80002380 <test_34_data>
    800006e8:	00053507          	fld	fa0,0(a0)
    800006ec:	00853587          	fld	fa1,8(a0)
    800006f0:	01053607          	fld	fa2,16(a0)
    800006f4:	01853683          	ld	a3,24(a0)
    800006f8:	c2351553          	fcvt.lu.d	a0,fa0,rtz
    800006fc:	001015f3          	fsflags	a1,zero
    80000700:	00100613          	li	a2,1
    80000704:	2ed51263          	bne	a0,a3,800009e8 <fail>
    80000708:	2ec59063          	bne	a1,a2,800009e8 <fail>

000000008000070c <test_35>:
    8000070c:	02300193          	li	gp,35
    80000710:	00002517          	auipc	a0,0x2
    80000714:	c9050513          	addi	a0,a0,-880 # 800023a0 <test_35_data>
    80000718:	00053507          	fld	fa0,0(a0)
    8000071c:	00853587          	fld	fa1,8(a0)
    80000720:	01053607          	fld	fa2,16(a0)
    80000724:	01853683          	ld	a3,24(a0)
    80000728:	c2351553          	fcvt.lu.d	a0,fa0,rtz
    8000072c:	001015f3          	fsflags	a1,zero
    80000730:	00100613          	li	a2,1
    80000734:	2ad51a63          	bne	a0,a3,800009e8 <fail>
    80000738:	2ac59863          	bne	a1,a2,800009e8 <fail>

000000008000073c <test_36>:
    8000073c:	02400193          	li	gp,36
    80000740:	00002517          	auipc	a0,0x2
    80000744:	c8050513          	addi	a0,a0,-896 # 800023c0 <test_36_data>
    80000748:	00053507          	fld	fa0,0(a0)
    8000074c:	00853587          	fld	fa1,8(a0)
    80000750:	01053607          	fld	fa2,16(a0)
    80000754:	01853683          	ld	a3,24(a0)
    80000758:	c2351553          	fcvt.lu.d	a0,fa0,rtz
    8000075c:	001015f3          	fsflags	a1,zero
    80000760:	00000613          	li	a2,0
    80000764:	28d51263          	bne	a0,a3,800009e8 <fail>
    80000768:	28c59063          	bne	a1,a2,800009e8 <fail>

000000008000076c <test_37>:
    8000076c:	02500193          	li	gp,37
    80000770:	00002517          	auipc	a0,0x2
    80000774:	c7050513          	addi	a0,a0,-912 # 800023e0 <test_37_data>
    80000778:	00053507          	fld	fa0,0(a0)
    8000077c:	00853587          	fld	fa1,8(a0)
    80000780:	01053607          	fld	fa2,16(a0)
    80000784:	01853683          	ld	a3,24(a0)
    80000788:	c2351553          	fcvt.lu.d	a0,fa0,rtz
    8000078c:	001015f3          	fsflags	a1,zero
    80000790:	00100613          	li	a2,1
    80000794:	24d51a63          	bne	a0,a3,800009e8 <fail>
    80000798:	24c59863          	bne	a1,a2,800009e8 <fail>

000000008000079c <test_38>:
    8000079c:	02600193          	li	gp,38
    800007a0:	00002517          	auipc	a0,0x2
    800007a4:	c6050513          	addi	a0,a0,-928 # 80002400 <test_38_data>
    800007a8:	00053507          	fld	fa0,0(a0)
    800007ac:	00853587          	fld	fa1,8(a0)
    800007b0:	01053607          	fld	fa2,16(a0)
    800007b4:	01853683          	ld	a3,24(a0)
    800007b8:	c2351553          	fcvt.lu.d	a0,fa0,rtz
    800007bc:	001015f3          	fsflags	a1,zero
    800007c0:	01000613          	li	a2,16
    800007c4:	22d51263          	bne	a0,a3,800009e8 <fail>
    800007c8:	22c59063          	bne	a1,a2,800009e8 <fail>

00000000800007cc <test_39>:
    800007cc:	02700193          	li	gp,39
    800007d0:	00002517          	auipc	a0,0x2
    800007d4:	c5050513          	addi	a0,a0,-944 # 80002420 <test_39_data>
    800007d8:	00053507          	fld	fa0,0(a0)
    800007dc:	00853587          	fld	fa1,8(a0)
    800007e0:	01053607          	fld	fa2,16(a0)
    800007e4:	01853683          	ld	a3,24(a0)
    800007e8:	c2351553          	fcvt.lu.d	a0,fa0,rtz
    800007ec:	001015f3          	fsflags	a1,zero
    800007f0:	00000613          	li	a2,0
    800007f4:	1ed51a63          	bne	a0,a3,800009e8 <fail>
    800007f8:	1ec59863          	bne	a1,a2,800009e8 <fail>

00000000800007fc <test_42>:
    800007fc:	02a00193          	li	gp,42
    80000800:	00002097          	auipc	ra,0x2
    80000804:	c5008093          	addi	ra,ra,-944 # 80002450 <tdat_d>
    80000808:	0000b087          	fld	ft1,0(ra)
    8000080c:	c200f0d3          	fcvt.w.d	ra,ft1
    80000810:	800003b7          	lui	t2,0x80000
    80000814:	fff3839b          	addiw	t2,t2,-1 # 7fffffff <_start-0x1>
    80000818:	1c709863          	bne	ra,t2,800009e8 <fail>

000000008000081c <test_43>:
    8000081c:	02b00193          	li	gp,43
    80000820:	00002097          	auipc	ra,0x2
    80000824:	c3008093          	addi	ra,ra,-976 # 80002450 <tdat_d>
    80000828:	0000b087          	fld	ft1,0(ra)
    8000082c:	c220f0d3          	fcvt.l.d	ra,ft1
    80000830:	fff0039b          	addiw	t2,zero,-1
    80000834:	03f39393          	slli	t2,t2,0x3f
    80000838:	fff38393          	addi	t2,t2,-1
    8000083c:	1a709663          	bne	ra,t2,800009e8 <fail>

0000000080000840 <test_44>:
    80000840:	02c00193          	li	gp,44
    80000844:	00002097          	auipc	ra,0x2
    80000848:	c0c08093          	addi	ra,ra,-1012 # 80002450 <tdat_d>
    8000084c:	0100b087          	fld	ft1,16(ra)
    80000850:	c200f0d3          	fcvt.w.d	ra,ft1
    80000854:	800003b7          	lui	t2,0x80000
    80000858:	18709863          	bne	ra,t2,800009e8 <fail>

000000008000085c <test_45>:
    8000085c:	02d00193          	li	gp,45
    80000860:	00002097          	auipc	ra,0x2
    80000864:	bf008093          	addi	ra,ra,-1040 # 80002450 <tdat_d>
    80000868:	0100b087          	fld	ft1,16(ra)
    8000086c:	c220f0d3          	fcvt.l.d	ra,ft1
    80000870:	fff0039b          	addiw	t2,zero,-1
    80000874:	03f39393          	slli	t2,t2,0x3f
    80000878:	16709863          	bne	ra,t2,800009e8 <fail>

000000008000087c <test_52>:
    8000087c:	03400193          	li	gp,52
    80000880:	00002097          	auipc	ra,0x2
    80000884:	bd008093          	addi	ra,ra,-1072 # 80002450 <tdat_d>
    80000888:	0080b087          	fld	ft1,8(ra)
    8000088c:	c200f0d3          	fcvt.w.d	ra,ft1
    80000890:	800003b7          	lui	t2,0x80000
    80000894:	fff3839b          	addiw	t2,t2,-1 # 7fffffff <_start-0x1>
    80000898:	14709863          	bne	ra,t2,800009e8 <fail>

000000008000089c <test_53>:
    8000089c:	03500193          	li	gp,53
    800008a0:	00002097          	auipc	ra,0x2
    800008a4:	bb008093          	addi	ra,ra,-1104 # 80002450 <tdat_d>
    800008a8:	0080b087          	fld	ft1,8(ra)
    800008ac:	c220f0d3          	fcvt.l.d	ra,ft1
    800008b0:	fff0039b          	addiw	t2,zero,-1
    800008b4:	03f39393          	slli	t2,t2,0x3f
    800008b8:	fff38393          	addi	t2,t2,-1
    800008bc:	12709663          	bne	ra,t2,800009e8 <fail>

00000000800008c0 <test_54>:
    800008c0:	03600193          	li	gp,54
    800008c4:	00002097          	auipc	ra,0x2
    800008c8:	b8c08093          	addi	ra,ra,-1140 # 80002450 <tdat_d>
    800008cc:	0180b087          	fld	ft1,24(ra)
    800008d0:	c200f0d3          	fcvt.w.d	ra,ft1
    800008d4:	800003b7          	lui	t2,0x80000
    800008d8:	fff3839b          	addiw	t2,t2,-1 # 7fffffff <_start-0x1>
    800008dc:	10709663          	bne	ra,t2,800009e8 <fail>

00000000800008e0 <test_55>:
    800008e0:	03700193          	li	gp,55
    800008e4:	00002097          	auipc	ra,0x2
    800008e8:	b6c08093          	addi	ra,ra,-1172 # 80002450 <tdat_d>
    800008ec:	0180b087          	fld	ft1,24(ra)
    800008f0:	c220f0d3          	fcvt.l.d	ra,ft1
    800008f4:	fff0039b          	addiw	t2,zero,-1
    800008f8:	03f39393          	slli	t2,t2,0x3f
    800008fc:	fff38393          	addi	t2,t2,-1
    80000900:	0e709463          	bne	ra,t2,800009e8 <fail>

0000000080000904 <test_62>:
    80000904:	03e00193          	li	gp,62
    80000908:	00002097          	auipc	ra,0x2
    8000090c:	b4808093          	addi	ra,ra,-1208 # 80002450 <tdat_d>
    80000910:	0000b087          	fld	ft1,0(ra)
    80000914:	c210f0d3          	fcvt.wu.d	ra,ft1
    80000918:	fff00393          	li	t2,-1
    8000091c:	0c709663          	bne	ra,t2,800009e8 <fail>

0000000080000920 <test_63>:
    80000920:	03f00193          	li	gp,63
    80000924:	00002097          	auipc	ra,0x2
    80000928:	b2c08093          	addi	ra,ra,-1236 # 80002450 <tdat_d>
    8000092c:	0080b087          	fld	ft1,8(ra)
    80000930:	c210f0d3          	fcvt.wu.d	ra,ft1
    80000934:	fff00393          	li	t2,-1
    80000938:	0a709863          	bne	ra,t2,800009e8 <fail>

000000008000093c <test_64>:
    8000093c:	04000193          	li	gp,64
    80000940:	00002097          	auipc	ra,0x2
    80000944:	b1008093          	addi	ra,ra,-1264 # 80002450 <tdat_d>
    80000948:	0100b087          	fld	ft1,16(ra)
    8000094c:	c210f0d3          	fcvt.wu.d	ra,ft1
    80000950:	00000393          	li	t2,0
    80000954:	08709a63          	bne	ra,t2,800009e8 <fail>

0000000080000958 <test_65>:
    80000958:	04100193          	li	gp,65
    8000095c:	00002097          	auipc	ra,0x2
    80000960:	af408093          	addi	ra,ra,-1292 # 80002450 <tdat_d>
    80000964:	0180b087          	fld	ft1,24(ra)
    80000968:	c210f0d3          	fcvt.wu.d	ra,ft1
    8000096c:	fff00393          	li	t2,-1
    80000970:	06709c63          	bne	ra,t2,800009e8 <fail>

0000000080000974 <test_66>:
    80000974:	04200193          	li	gp,66
    80000978:	00002097          	auipc	ra,0x2
    8000097c:	ad808093          	addi	ra,ra,-1320 # 80002450 <tdat_d>
    80000980:	0000b087          	fld	ft1,0(ra)
    80000984:	c230f0d3          	fcvt.lu.d	ra,ft1
    80000988:	fff00393          	li	t2,-1
    8000098c:	04709e63          	bne	ra,t2,800009e8 <fail>

0000000080000990 <test_67>:
    80000990:	04300193          	li	gp,67
    80000994:	00002097          	auipc	ra,0x2
    80000998:	abc08093          	addi	ra,ra,-1348 # 80002450 <tdat_d>
    8000099c:	0080b087          	fld	ft1,8(ra)
    800009a0:	c230f0d3          	fcvt.lu.d	ra,ft1
    800009a4:	fff00393          	li	t2,-1
    800009a8:	04709063          	bne	ra,t2,800009e8 <fail>

00000000800009ac <test_68>:
    800009ac:	04400193          	li	gp,68
    800009b0:	00002097          	auipc	ra,0x2
    800009b4:	aa008093          	addi	ra,ra,-1376 # 80002450 <tdat_d>
    800009b8:	0100b087          	fld	ft1,16(ra)
    800009bc:	c230f0d3          	fcvt.lu.d	ra,ft1
    800009c0:	00000393          	li	t2,0
    800009c4:	02709263          	bne	ra,t2,800009e8 <fail>

00000000800009c8 <test_69>:
    800009c8:	04500193          	li	gp,69
    800009cc:	00002097          	auipc	ra,0x2
    800009d0:	a8408093          	addi	ra,ra,-1404 # 80002450 <tdat_d>
    800009d4:	0180b087          	fld	ft1,24(ra)
    800009d8:	c230f0d3          	fcvt.lu.d	ra,ft1
    800009dc:	fff00393          	li	t2,-1
    800009e0:	00709463          	bne	ra,t2,800009e8 <fail>
    800009e4:	02301063          	bne	zero,gp,80000a04 <pass>

00000000800009e8 <fail>:
    800009e8:	0ff0000f          	fence
    800009ec:	00018063          	beqz	gp,800009ec <fail+0x4>
    800009f0:	00119193          	slli	gp,gp,0x1
    800009f4:	0011e193          	ori	gp,gp,1
    800009f8:	05d00893          	li	a7,93
    800009fc:	00018513          	mv	a0,gp
    80000a00:	00000073          	ecall

0000000080000a04 <pass>:
    80000a04:	0ff0000f          	fence
    80000a08:	00100193          	li	gp,1
    80000a0c:	05d00893          	li	a7,93
    80000a10:	00000513          	li	a0,0
    80000a14:	00000073          	ecall
    80000a18:	c0001073          	unimp
    80000a1c:	0000                	.insn	2, 0x
    80000a1e:	0000                	.insn	2, 0x
    80000a20:	0000                	.insn	2, 0x
    80000a22:	0000                	.insn	2, 0x
    80000a24:	0000                	.insn	2, 0x
    80000a26:	0000                	.insn	2, 0x
    80000a28:	0000                	.insn	2, 0x
    80000a2a:	0000                	.insn	2, 0x
    80000a2c:	0000                	.insn	2, 0x
    80000a2e:	0000                	.insn	2, 0x
    80000a30:	0000                	.insn	2, 0x
    80000a32:	0000                	.insn	2, 0x
    80000a34:	0000                	.insn	2, 0x
    80000a36:	0000                	.insn	2, 0x
    80000a38:	0000                	.insn	2, 0x
    80000a3a:	0000                	.insn	2, 0x
